
vrased.elf:     file format elf32-msp430

SYMBOL TABLE:
0000e000 l    d  .text	00000000 .text
0000a000 l    d  .srom	00000000 .srom
00000200 l    d  .sstack	00000000 .sstack
00001200 l    d  .noinit	00000000 .noinit
0000ffe0 l    d  .vectors	00000000 .vectors
00000000 l    d  .debug_aranges	00000000 .debug_aranges
00000000 l    d  .debug_info	00000000 .debug_info
00000000 l    d  .debug_abbrev	00000000 .debug_abbrev
00000000 l    d  .debug_line	00000000 .debug_line
00000000 l    d  .debug_frame	00000000 .debug_frame
00000000 l    d  .debug_str	00000000 .debug_str
00000000 l    d  .debug_loc	00000000 .debug_loc
00000000 l    d  .debug_ranges	00000000 .debug_ranges
00000000 l    df *ABS*	00000000 main.c
0000e0f2 l       .text	00000000 __br_unexpected_
00000000 l    df *ABS*	00000000 wrapper.c
00000000 l    df *ABS*	00000000 Hacl_HMAC_SHA2_256.c
0000a070 l     F .srom	00000362 Hacl_Impl_SHA2_256_init
0000a3d2 l     F .srom	00000028 Hacl_Impl_HMAC_SHA2_256_xor_bytes_inplace
0000a3fa l     F .srom	00000634 Hacl_Impl_SHA2_256_update
0000aa2e l     F .srom	00000046 Hacl_Impl_SHA2_256_update_multi
0000aa74 l     F .srom	00000262 Hacl_Impl_SHA2_256_update_last
0000acd6 l     F .srom	000000e6 Hacl_Impl_SHA2_256_finish
0000adbc l     F .srom	0000015c Hacl_Impl_HMAC_SHA2_256_hmac_core
0000af18 l     F .srom	000000f0 Hacl_Impl_HMAC_SHA2_256_hmac
00000000 l    df *ABS*	00000000 memcpy.c
00000000 l    df *ABS*	00000000 memset.c
00010000 g       *ABS*	00000000 _far_end
00000000 g       *ABS*	00000000 __data_size
0000e0f2  w      .text	00000000 __isr_14
0000e0f2  w      .text	00000000 __isr_4
00000138 g       *ABS*	00000000 __OP2
0000e110 g     F .text	00000022 my_memcpy
00010000 g       *ABS*	00000000 _efartext
00000130 g       *ABS*	00000000 __MPY
0000013a g       *ABS*	00000000 __RESLO
00000136 g       *ABS*	00000000 __MACS
0000e000 g       *ABS*	00000000 _etext
00000000 g       *ABS*	00000000 __bss_size
0000e000  w      .text	00000000 __watchdog_support
0000e0ec  w      .text	00000000 __stop_progExec__
0000b02e g     F .srom	000000fa memcpy
0000e0f2  w      .text	00000000 __isr_11
0000dffe g     F .srom	00000002 Hacl_HMAC_SHA2_256_hmac_exit
0000e0f2  w      .text	00000000 __isr_5
0000e182 g       *ABS*	00000000 __data_load_start
0000e0f2 g       .text	00000000 __dtors_end
00001200 g       .noinit	00000000 __bss_end
0000e0f2  w      .text	00000000 __isr_2
0000e0f2  w      .text	00000000 __isr_10
0000e0f6 g     F .text	0000001a my_memset
0000013c g       *ABS*	00000000 __RESHI
00001200 g     O .noinit	00000002 __wdt_clear_value
0000e0f2  w      .text	00000000 __isr_7
0000ffe0 g     O .vectors	00000020 __ivtbl_16
0000b192 g       .srom	00000000 __cur_offset
0000e0f2  w      .text	00000000 __isr_0
0000e028  w      .text	00000000 __do_clear_bss
0000e180  w      .text	00000000 _unexpected_
0000e0f2  w      .text	00000000 __isr_8
0000e0f2  w      .text	00000000 __isr_3
0000ffe0 g       .vectors	00000000 __vectors_start
0000e000  w      .text	00000000 _reset_vector__
0000e0f2 g       .text	00000000 __ctors_start
0000e0f2  w      .text	00000000 __isr_12
0000e010  w      .text	00000000 __do_copy_data
00001200 g       .noinit	00000000 __bss_start
0000b128 g     F .srom	0000006a memset
0000e03e g     F .text	000000ae main
0000e0f2  w      .text	00000000 __isr_13
00010000 g       .vectors	00000000 _vectors_end
00001200 g       .noinit	00000000 __noinit_start
0000e0f2  w      .text	00000000 __isr_9
00001202 g       .noinit	00000000 __noinit_end
0000e00c  w      .text	00000000 __init_stack
0000e0f2 g       .text	00000000 __dtors_start
0000e0f2  w      .text	00000000 __isr_6
0000e0f2 g       .text	00000000 __ctors_end
00000132 g       *ABS*	00000000 __MPYS
00006200 g       *ABS*	00000000 __stack
0000a000 g     F .srom	00000070 Hacl_HMAC_SHA2_256_hmac_entry
0000e0f2  w      .text	00000000 __isr_1
00000200 g       .srom	00000000 _edata
00001202 g       *ABS*	00000000 _end
0000dffe g       .srom	00000000 __mac_leave
00000134 g       *ABS*	00000000 __MAC
0000e0ec  w      .text	00000000 _endless_loop__
0000e010  w      .text	00000000 __low_level_init
0000e132 g     F .text	0000004e VRASED
00000200 g       .srom	00000000 __data_start
00000120 g       *ABS*	00000000 __WDTCTL
0000b008 g     F .srom	00000010 hmac_core
0000b018 g     F .srom	00000016 hmac
0000013e g       *ABS*	00000000 __SUMEXT



Disassembly of section .text:

0000e000 <__watchdog_support>:
    e000:	55 42 20 01 	mov.b	&0x0120,r5	
    e004:	35 d0 08 5a 	bis	#23048,	r5	;#0x5a08
    e008:	82 45 00 12 	mov	r5,	&0x1200	

0000e00c <__init_stack>:
    e00c:	31 40 00 62 	mov	#25088,	r1	;#0x6200

0000e010 <__do_copy_data>:
    e010:	3f 40 00 00 	mov	#0,	r15	;#0x0000
    e014:	0f 93       	tst	r15		
    e016:	08 24       	jz	$+18     	;abs 0xe028
    e018:	92 42 00 12 	mov	&0x1200,&0x0120	
    e01c:	20 01 
    e01e:	2f 83       	decd	r15		
    e020:	9f 4f 82 e1 	mov	-7806(r15),512(r15);0xe182(r15), 0x0200(r15)
    e024:	00 02 
    e026:	f8 23       	jnz	$-14     	;abs 0xe018

0000e028 <__do_clear_bss>:
    e028:	3f 40 00 00 	mov	#0,	r15	;#0x0000
    e02c:	0f 93       	tst	r15		
    e02e:	07 24       	jz	$+16     	;abs 0xe03e
    e030:	92 42 00 12 	mov	&0x1200,&0x0120	
    e034:	20 01 
    e036:	1f 83       	dec	r15		
    e038:	cf 43 00 12 	mov.b	#0,	4608(r15);r3 As==00, 0x1200(r15)
    e03c:	f9 23       	jnz	$-12     	;abs 0xe030

0000e03e <main>:

extern void my_memset(uint8_t* ptr, int len, uint8_t val);

extern void my_memcpy(uint8_t* dst, uint8_t* src, int size);

int main() {
    e03e:	31 50 be ff 	add	#-66,	r1	;#0xffbe
  uint8_t challenge[32];
  uint8_t response[32];
  my_memset(challenge, 32, 1);
    e042:	5d 43       	mov.b	#1,	r13	;r3 As==01
    e044:	3e 40 20 00 	mov	#32,	r14	;#0x0020
    e048:	0f 41       	mov	r1,	r15	
    e04a:	b0 12 f6 e0 	call	#0xe0f6	

//  uncomment for key AC violation:
//  volatile int *a = 0x6A00;
//  volatile int b = *a;  
  uint32_t* wdt = (uint32_t*)(WDTCTL_);
  *wdt = WDTPW | WDTHOLD;
    e04e:	b2 40 80 5a 	mov	#23168,	&0x0120	;#0x5a80
    e052:	20 01 
    e054:	82 43 22 01 	mov	#0,	&0x0122	;r3 As==00

  // P3 is used for outputs and is connected to the LEDs
  P3DIR  =  0xFF;
    e058:	f2 43 1a 00 	mov.b	#-1,	&0x001a	;r3 As==11
  // P1 is used for input p1[0] is connected to btnR (T17 on basys3)

  //VRASED(challenge, response);
  //__asm__ volatile("br #0xffff" "\n\t");

  P3OUT  =  0x00;
    e05c:	c2 43 19 00 	mov.b	#0,	&0x0019	;r3 As==00
  uint32_t count = 0; 
  volatile uint8_t buffer = 0;
    e060:	c1 43 40 00 	mov.b	#0,	64(r1)	;r3 As==00, 0x0040(r1)

  //VRASED(challenge, response);
  //__asm__ volatile("br #0xffff" "\n\t");

  P3OUT  =  0x00;
  uint32_t count = 0; 
    e064:	0e 43       	clr	r14		
    e066:	0f 43       	clr	r15		
    e068:	05 3c       	jmp	$+12     	;abs 0xe074
  volatile uint8_t buffer = 0;
        
  while (1) {
     while (count < 3000000) {
        count ++;    
    e06a:	1e 53       	inc	r14		
    e06c:	0f 63       	adc	r15		
    e06e:	02 3c       	jmp	$+6      	;abs 0xe074
     }
     count = 0;
    e070:	0e 43       	clr	r14		
    e072:	0f 43       	clr	r15		
  P3OUT  =  0x00;
  uint32_t count = 0; 
  volatile uint8_t buffer = 0;
        
  while (1) {
     while (count < 3000000) {
    e074:	3f 90 2d 00 	cmp	#45,	r15	;#0x002d
    e078:	f8 2b       	jnc	$-14     	;abs 0xe06a
    e07a:	03 20       	jnz	$+8      	;abs 0xe082
    e07c:	3e 90 c0 c6 	cmp	#-14656,r14	;#0xc6c0
    e080:	f4 2b       	jnc	$-22     	;abs 0xe06a
        count ++;    
     }
     count = 0;
     P3OUT++;
    e082:	3f 40 19 00 	mov	#25,	r15	;#0x0019
    e086:	6e 4f       	mov.b	@r15,	r14	
    e088:	5e 53       	inc.b	r14		
    e08a:	cf 4e 00 00 	mov.b	r14,	0(r15)	;0x0000(r15)
    // if btnR is pressed run attestation 
    if (P3OUT % 10 == 0) {
    e08e:	6c 4f       	mov.b	@r15,	r12	
    e090:	4d 4c       	mov.b	r12,	r13	
    e092:	0e 4d       	mov	r13,	r14	
    e094:	0e 5e       	rla	r14		
    e096:	0e 5d       	add	r13,	r14	
    e098:	0e 5e       	rla	r14		
    e09a:	0e 5e       	rla	r14		
    e09c:	0f 4e       	mov	r14,	r15	
    e09e:	0f 5f       	rla	r15		
    e0a0:	0f 5f       	rla	r15		
    e0a2:	0f 5f       	rla	r15		
    e0a4:	0f 5f       	rla	r15		
    e0a6:	0f 5e       	add	r14,	r15	
    e0a8:	0f 5d       	add	r13,	r15	
    e0aa:	8f 10       	swpb	r15		
    e0ac:	12 c3       	clrc			
    e0ae:	4f 10       	rrc.b	r15		
    e0b0:	12 c3       	clrc			
    e0b2:	4f 10       	rrc.b	r15		
    e0b4:	7f f0 fe ff 	and.b	#-2,	r15	;#0xfffe
    e0b8:	4d 4f       	mov.b	r15,	r13	
    e0ba:	4d 5d       	rla.b	r13		
    e0bc:	4d 5d       	rla.b	r13		
    e0be:	4f 5d       	add.b	r13,	r15	
    e0c0:	4c 9f       	cmp.b	r15,	r12	
    e0c2:	d6 23       	jnz	$-82     	;abs 0xe070
        buffer = P3OUT;
    e0c4:	3b 40 19 00 	mov	#25,	r11	;#0x0019
    e0c8:	6f 4b       	mov.b	@r11,	r15	
    e0ca:	c1 4f 40 00 	mov.b	r15,	64(r1)	;0x0040(r1)
        P3OUT = 0xFF;
    e0ce:	fb 43 00 00 	mov.b	#-1,	0(r11)	;r3 As==11, 0x0000(r11)

        VRASED(challenge, response);
    e0d2:	0e 41       	mov	r1,	r14	
    e0d4:	3e 50 20 00 	add	#32,	r14	;#0x0020
    e0d8:	0f 41       	mov	r1,	r15	
    e0da:	b0 12 32 e1 	call	#0xe132	
        count = 0;

        P3OUT = buffer;
    e0de:	5f 41 40 00 	mov.b	64(r1),	r15	;0x0040(r1)
    e0e2:	cb 4f 00 00 	mov.b	r15,	0(r11)	;0x0000(r11)
    if (P3OUT % 10 == 0) {
        buffer = P3OUT;
        P3OUT = 0xFF;

        VRASED(challenge, response);
        count = 0;
    e0e6:	0e 43       	clr	r14		
    e0e8:	0f 43       	clr	r15		
    e0ea:	c4 3f       	jmp	$-118    	;abs 0xe074

0000e0ec <__stop_progExec__>:
    e0ec:	32 d0 f0 00 	bis	#240,	r2	;#0x00f0
    e0f0:	fd 3f       	jmp	$-4      	;abs 0xe0ec

0000e0f2 <__ctors_end>:
    e0f2:	30 40 80 e1 	br	#0xe180	

0000e0f6 <my_memset>:
  uint32_t keylen,
  uint8_t *data,
  uint32_t datalen
);

void my_memset(uint8_t* ptr, int len, uint8_t val) {
    e0f6:	0b 12       	push	r11		
  int i=0;
  for(i=0; i<len; i++) ptr[i] = val;
    e0f8:	1e 93       	cmp	#1,	r14	;r3 As==01
    e0fa:	08 38       	jl	$+18     	;abs 0xe10c
    e0fc:	0c 43       	clr	r12		
  uint32_t keylen,
  uint8_t *data,
  uint32_t datalen
);

void my_memset(uint8_t* ptr, int len, uint8_t val) {
    e0fe:	0b 4f       	mov	r15,	r11	
    e100:	0b 5c       	add	r12,	r11	
  int i=0;
  for(i=0; i<len; i++) ptr[i] = val;
    e102:	cb 4d 00 00 	mov.b	r13,	0(r11)	;0x0000(r11)
    e106:	1c 53       	inc	r12		
    e108:	0c 9e       	cmp	r14,	r12	
    e10a:	f9 23       	jnz	$-12     	;abs 0xe0fe
}
    e10c:	3b 41       	pop	r11		
    e10e:	30 41       	ret			

0000e110 <my_memcpy>:

void my_memcpy(uint8_t* dst, uint8_t* src, int size) {
    e110:	0b 12       	push	r11		
    e112:	0a 12       	push	r10		
  int i=0;
  for(i=0; i<size; i++) dst[i] = src[i];
    e114:	1d 93       	cmp	#1,	r13	;r3 As==01
    e116:	0a 38       	jl	$+22     	;abs 0xe12c
    e118:	0c 43       	clr	r12		
void my_memset(uint8_t* ptr, int len, uint8_t val) {
  int i=0;
  for(i=0; i<len; i++) ptr[i] = val;
}

void my_memcpy(uint8_t* dst, uint8_t* src, int size) {
    e11a:	0a 4e       	mov	r14,	r10	
    e11c:	0a 5c       	add	r12,	r10	
    e11e:	0b 4f       	mov	r15,	r11	
    e120:	0b 5c       	add	r12,	r11	
  int i=0;
  for(i=0; i<size; i++) dst[i] = src[i];
    e122:	eb 4a 00 00 	mov.b	@r10,	0(r11)	;0x0000(r11)
    e126:	1c 53       	inc	r12		
    e128:	0c 9d       	cmp	r13,	r12	
    e12a:	f7 23       	jnz	$-16     	;abs 0xe11a
}
    e12c:	3a 41       	pop	r10		
    e12e:	3b 41       	pop	r11		
    e130:	30 41       	ret			

0000e132 <VRASED>:

__attribute__ ((section (".do_mac.leave"))) __attribute__((naked)) void Hacl_HMAC_SHA2_256_hmac_exit() {
    __asm__ volatile("br   r6" "\n\t");
}

void VRASED (uint8_t *challenge, uint8_t *response) {
    e132:	0b 12       	push	r11		
    e134:	0b 4e       	mov	r14,	r11	
    //Copy input challenge to MAC_ADDR:
    my_memcpy ( (uint8_t*)MAC_ADDR, challenge, 32);
    e136:	3d 40 20 00 	mov	#32,	r13	;#0x0020
    e13a:	0e 4f       	mov	r15,	r14	
    e13c:	3f 40 30 02 	mov	#560,	r15	;#0x0230
    e140:	b0 12 10 e1 	call	#0xe110	

    //Disable interrupts:
    __dint();
    e144:	32 c2       	dint			
    e146:	03 43       	nop			

    // Save current value of r5 and r6:
    __asm__ volatile("push    r5" "\n\t");
    e148:	05 12       	push	r5		
    __asm__ volatile("push    r6" "\n\t");
    e14a:	06 12       	push	r6		

    // Write return address of Hacl_HMAC_SHA2_256_hmac_entry
    // to RAM:
    __asm__ volatile("mov    #0x000e,   r6" "\n\t");
    e14c:	36 40 0e 00 	mov	#14,	r6	;#0x000e
    __asm__ volatile("mov    #0x0300,   r5" "\n\t");
    e150:	35 40 00 03 	mov	#768,	r5	;#0x0300
    __asm__ volatile("mov    r0,        @(r5)" "\n\t");
    e154:	85 40 00 00 	mov	r0,	0(r5)	;0x0000(r5)
    __asm__ volatile("add    r6,        @(r5)" "\n\t");
    e158:	85 56 00 00 	add	r6,	0(r5)	;0x0000(r5)

    // Save the original value of the Stack Pointer (R1):
    __asm__ volatile("mov    r1,    r5" "\n\t");
    e15c:	05 41       	mov	r1,	r5	

    // Set the stack pointer to the base of the exclusive stack:
    __asm__ volatile("mov    #0x1000,     r1" "\n\t");
    e15e:	31 40 00 10 	mov	#4096,	r1	;#0x1000

    // Call SW-Att:
    Hacl_HMAC_SHA2_256_hmac_entry();
    e162:	b0 12 00 a0 	call	#0xa000	

    // Copy retrieve the original stack pointer value:
    __asm__ volatile("mov    r5,    r1" "\n\t");
    e166:	01 45       	mov	r5,	r1	

    // Restore original r5,r6 values:
    __asm__ volatile("pop   r6" "\n\t");
    e168:	36 41       	pop	r6		
    __asm__ volatile("pop   r5" "\n\t");
    e16a:	35 41       	pop	r5		

    // Enable interrupts:
    __eint();
    e16c:	32 d2       	eint			

    // Return the HMAC value to the application:
    my_memcpy(response, (uint8_t*)MAC_ADDR, 32);
    e16e:	3d 40 20 00 	mov	#32,	r13	;#0x0020
    e172:	3e 40 30 02 	mov	#560,	r14	;#0x0230
    e176:	0f 4b       	mov	r11,	r15	
    e178:	b0 12 10 e1 	call	#0xe110	
}
    e17c:	3b 41       	pop	r11		
    e17e:	30 41       	ret			

0000e180 <_unexpected_>:
    e180:	00 13       	reti			

Disassembly of section .srom:

0000a000 <Hacl_HMAC_SHA2_256_hmac_entry>:
void my_memcpy(uint8_t* dst, uint8_t* src, int size) {
  int i=0;
  for(i=0; i<size; i++) dst[i] = src[i];
}

__attribute__ ((section (".do_mac.call"))) void Hacl_HMAC_SHA2_256_hmac_entry() {
    a000:	31 50 c0 ff 	add	#-64,	r1	;#0xffc0

    //Save application stack pointer.
    //Allocate key buffer.
    uint8_t key[64] = {0};
    a004:	3d 40 40 00 	mov	#64,	r13	;#0x0040
    a008:	0e 43       	clr	r14		
    a00a:	0f 41       	mov	r1,	r15	
    a00c:	b0 12 28 b1 	call	#0xb128	
    //Copy the key from KEY_ADDR to the key buffer.
    memcpy(key, (uint8_t*)KEY_ADDR, 64);
    a010:	3d 40 40 00 	mov	#64,	r13	;#0x0040
    a014:	3e 40 00 6a 	mov	#27136,	r14	;#0x6a00
    a018:	0f 41       	mov	r1,	r15	
    a01a:	b0 12 2e b0 	call	#0xb02e	
    hmac((uint8_t*) key, (uint8_t*) key, (uint32_t) 64, (uint8_t*) MAC_ADDR, (uint32_t) 32);
    a01e:	03 12       	push	#0		;r3 As==00
    a020:	30 12 20 00 	push	#32		;#0x0020
    a024:	30 12 30 02 	push	#560		;#0x0230
    a028:	3c 40 40 00 	mov	#64,	r12	;#0x0040
    a02c:	0d 43       	clr	r13		
    a02e:	0e 41       	mov	r1,	r14	
    a030:	3e 50 06 00 	add	#6,	r14	;#0x0006
    a034:	0f 4e       	mov	r14,	r15	
    a036:	b0 12 18 b0 	call	#0xb018	
    a03a:	31 50 06 00 	add	#6,	r1	;#0x0006
    // Uses the result in the key buffer to compute HMAC.
    // Stores the result in HMAC ADDR.
    hmac((uint8_t*) (MAC_ADDR), (uint8_t*) key, (uint32_t) 32, (uint8_t*) ATTEST_DATA_ADDR, (uint32_t) ATTEST_SIZE);
    a03e:	03 12       	push	#0		;r3 As==00
    a040:	30 12 10 00 	push	#16		;#0x0010
    a044:	30 12 00 e0 	push	#-8192		;#0xe000
    a048:	3c 40 20 00 	mov	#32,	r12	;#0x0020
    a04c:	0d 43       	clr	r13		
    a04e:	0e 41       	mov	r1,	r14	
    a050:	3e 50 06 00 	add	#6,	r14	;#0x0006
    a054:	3f 40 30 02 	mov	#560,	r15	;#0x0230
    a058:	b0 12 18 b0 	call	#0xb018	

	//return;

    // setting the return addr:
    __asm__ volatile("mov    #0x0300,   r6" "\n\t");
    a05c:	36 40 00 03 	mov	#768,	r6	;#0x0300
    __asm__ volatile("mov    @(r6),     r6" "\n\t");
    a060:	26 46       	mov	@r6,	r6	

    // postamble
    __asm__ volatile("add     #70,    r1" "\n\t");
    a062:	31 50 46 00 	add	#70,	r1	;#0x0046
    __asm__ volatile( "br      #__mac_leave" "\n\t");
    a066:	30 40 fe df 	br	#0xdffe	
}
    a06a:	31 50 46 00 	add	#70,	r1	;#0x0046
    a06e:	30 41       	ret			

0000a070 <Hacl_Impl_SHA2_256_init>:
  uint32_t *p4 = k1 + (uint32_t)48U;
  uint32_t *p11 = p10;
  uint32_t *p21 = p10 + (uint32_t)8U;
  uint32_t *p12 = p11;
  uint32_t *p22 = p11 + (uint32_t)4U;
  p12[0U] = (uint32_t)0x428a2f98U;
    a070:	bf 40 98 2f 	mov	#12184,	0(r15)	;#0x2f98, 0x0000(r15)
    a074:	00 00 
    a076:	bf 40 8a 42 	mov	#17034,	2(r15)	;#0x428a, 0x0002(r15)
    a07a:	02 00 
  p12[1U] = (uint32_t)0x71374491U;
    a07c:	bf 40 91 44 	mov	#17553,	4(r15)	;#0x4491, 0x0004(r15)
    a080:	04 00 
    a082:	bf 40 37 71 	mov	#28983,	6(r15)	;#0x7137, 0x0006(r15)
    a086:	06 00 
  p12[2U] = (uint32_t)0xb5c0fbcfU;
    a088:	bf 40 cf fb 	mov	#-1073,	8(r15)	;#0xfbcf, 0x0008(r15)
    a08c:	08 00 
    a08e:	bf 40 c0 b5 	mov	#-19008,10(r15)	;#0xb5c0, 0x000a(r15)
    a092:	0a 00 
  p12[3U] = (uint32_t)0xe9b5dba5U;
    a094:	bf 40 a5 db 	mov	#-9307,	12(r15)	;#0xdba5, 0x000c(r15)
    a098:	0c 00 
    a09a:	bf 40 b5 e9 	mov	#-5707,	14(r15)	;#0xe9b5, 0x000e(r15)
    a09e:	0e 00 
  p22[0U] = (uint32_t)0x3956c25bU;
    a0a0:	bf 40 5b c2 	mov	#-15781,16(r15)	;#0xc25b, 0x0010(r15)
    a0a4:	10 00 
    a0a6:	bf 40 56 39 	mov	#14678,	18(r15)	;#0x3956, 0x0012(r15)
    a0aa:	12 00 
  p22[1U] = (uint32_t)0x59f111f1U;
    a0ac:	bf 40 f1 11 	mov	#4593,	20(r15)	;#0x11f1, 0x0014(r15)
    a0b0:	14 00 
    a0b2:	bf 40 f1 59 	mov	#23025,	22(r15)	;#0x59f1, 0x0016(r15)
    a0b6:	16 00 
  p22[2U] = (uint32_t)0x923f82a4U;
    a0b8:	bf 40 a4 82 	mov	#-32092,24(r15)	;#0x82a4, 0x0018(r15)
    a0bc:	18 00 
    a0be:	bf 40 3f 92 	mov	#-28097,26(r15)	;#0x923f, 0x001a(r15)
    a0c2:	1a 00 
  p22[3U] = (uint32_t)0xab1c5ed5U;
    a0c4:	bf 40 d5 5e 	mov	#24277,	28(r15)	;#0x5ed5, 0x001c(r15)
    a0c8:	1c 00 
    a0ca:	bf 40 1c ab 	mov	#-21732,30(r15)	;#0xab1c, 0x001e(r15)
    a0ce:	1e 00 
  uint32_t *p13 = p21;
  uint32_t *p23 = p21 + (uint32_t)4U;
  p13[0U] = (uint32_t)0xd807aa98U;
    a0d0:	bf 40 98 aa 	mov	#-21864,32(r15)	;#0xaa98, 0x0020(r15)
    a0d4:	20 00 
    a0d6:	bf 40 07 d8 	mov	#-10233,34(r15)	;#0xd807, 0x0022(r15)
    a0da:	22 00 
  p13[1U] = (uint32_t)0x12835b01U;
    a0dc:	bf 40 01 5b 	mov	#23297,	36(r15)	;#0x5b01, 0x0024(r15)
    a0e0:	24 00 
    a0e2:	bf 40 83 12 	mov	#4739,	38(r15)	;#0x1283, 0x0026(r15)
    a0e6:	26 00 
  p13[2U] = (uint32_t)0x243185beU;
    a0e8:	bf 40 be 85 	mov	#-31298,40(r15)	;#0x85be, 0x0028(r15)
    a0ec:	28 00 
    a0ee:	bf 40 31 24 	mov	#9265,	42(r15)	;#0x2431, 0x002a(r15)
    a0f2:	2a 00 
  p13[3U] = (uint32_t)0x550c7dc3U;
    a0f4:	bf 40 c3 7d 	mov	#32195,	44(r15)	;#0x7dc3, 0x002c(r15)
    a0f8:	2c 00 
    a0fa:	bf 40 0c 55 	mov	#21772,	46(r15)	;#0x550c, 0x002e(r15)
    a0fe:	2e 00 
  p23[0U] = (uint32_t)0x72be5d74U;
    a100:	bf 40 74 5d 	mov	#23924,	48(r15)	;#0x5d74, 0x0030(r15)
    a104:	30 00 
    a106:	bf 40 be 72 	mov	#29374,	50(r15)	;#0x72be, 0x0032(r15)
    a10a:	32 00 
  p23[1U] = (uint32_t)0x80deb1feU;
    a10c:	bf 40 fe b1 	mov	#-19970,52(r15)	;#0xb1fe, 0x0034(r15)
    a110:	34 00 
    a112:	bf 40 de 80 	mov	#-32546,54(r15)	;#0x80de, 0x0036(r15)
    a116:	36 00 
  p23[2U] = (uint32_t)0x9bdc06a7U;
    a118:	bf 40 a7 06 	mov	#1703,	56(r15)	;#0x06a7, 0x0038(r15)
    a11c:	38 00 
    a11e:	bf 40 dc 9b 	mov	#-25636,58(r15)	;#0x9bdc, 0x003a(r15)
    a122:	3a 00 
  p23[3U] = (uint32_t)0xc19bf174U;
    a124:	bf 40 74 f1 	mov	#-3724,	60(r15)	;#0xf174, 0x003c(r15)
    a128:	3c 00 
    a12a:	bf 40 9b c1 	mov	#-15973,62(r15)	;#0xc19b, 0x003e(r15)
    a12e:	3e 00 
  uint32_t *p14 = p20;
  uint32_t *p24 = p20 + (uint32_t)8U;
  uint32_t *p15 = p14;
  uint32_t *p25 = p14 + (uint32_t)4U;
  p15[0U] = (uint32_t)0xe49b69c1U;
    a130:	bf 40 c1 69 	mov	#27073,	64(r15)	;#0x69c1, 0x0040(r15)
    a134:	40 00 
    a136:	bf 40 9b e4 	mov	#-7013,	66(r15)	;#0xe49b, 0x0042(r15)
    a13a:	42 00 
  p15[1U] = (uint32_t)0xefbe4786U;
    a13c:	bf 40 86 47 	mov	#18310,	68(r15)	;#0x4786, 0x0044(r15)
    a140:	44 00 
    a142:	bf 40 be ef 	mov	#-4162,	70(r15)	;#0xefbe, 0x0046(r15)
    a146:	46 00 
  p15[2U] = (uint32_t)0x0fc19dc6U;
    a148:	bf 40 c6 9d 	mov	#-25146,72(r15)	;#0x9dc6, 0x0048(r15)
    a14c:	48 00 
    a14e:	bf 40 c1 0f 	mov	#4033,	74(r15)	;#0x0fc1, 0x004a(r15)
    a152:	4a 00 
  p15[3U] = (uint32_t)0x240ca1ccU;
    a154:	bf 40 cc a1 	mov	#-24116,76(r15)	;#0xa1cc, 0x004c(r15)
    a158:	4c 00 
    a15a:	bf 40 0c 24 	mov	#9228,	78(r15)	;#0x240c, 0x004e(r15)
    a15e:	4e 00 
  p25[0U] = (uint32_t)0x2de92c6fU;
    a160:	bf 40 6f 2c 	mov	#11375,	80(r15)	;#0x2c6f, 0x0050(r15)
    a164:	50 00 
    a166:	bf 40 e9 2d 	mov	#11753,	82(r15)	;#0x2de9, 0x0052(r15)
    a16a:	52 00 
  p25[1U] = (uint32_t)0x4a7484aaU;
    a16c:	bf 40 aa 84 	mov	#-31574,84(r15)	;#0x84aa, 0x0054(r15)
    a170:	54 00 
    a172:	bf 40 74 4a 	mov	#19060,	86(r15)	;#0x4a74, 0x0056(r15)
    a176:	56 00 
  p25[2U] = (uint32_t)0x5cb0a9dcU;
    a178:	bf 40 dc a9 	mov	#-22052,88(r15)	;#0xa9dc, 0x0058(r15)
    a17c:	58 00 
    a17e:	bf 40 b0 5c 	mov	#23728,	90(r15)	;#0x5cb0, 0x005a(r15)
    a182:	5a 00 
  p25[3U] = (uint32_t)0x76f988daU;
    a184:	bf 40 da 88 	mov	#-30502,92(r15)	;#0x88da, 0x005c(r15)
    a188:	5c 00 
    a18a:	bf 40 f9 76 	mov	#30457,	94(r15)	;#0x76f9, 0x005e(r15)
    a18e:	5e 00 
  uint32_t *p16 = p24;
  uint32_t *p26 = p24 + (uint32_t)4U;
  p16[0U] = (uint32_t)0x983e5152U;
    a190:	bf 40 52 51 	mov	#20818,	96(r15)	;#0x5152, 0x0060(r15)
    a194:	60 00 
    a196:	bf 40 3e 98 	mov	#-26562,98(r15)	;#0x983e, 0x0062(r15)
    a19a:	62 00 
  p16[1U] = (uint32_t)0xa831c66dU;
    a19c:	bf 40 6d c6 	mov	#-14739,100(r15);#0xc66d, 0x0064(r15)
    a1a0:	64 00 
    a1a2:	bf 40 31 a8 	mov	#-22479,102(r15);#0xa831, 0x0066(r15)
    a1a6:	66 00 
  p16[2U] = (uint32_t)0xb00327c8U;
    a1a8:	bf 40 c8 27 	mov	#10184,	104(r15);#0x27c8, 0x0068(r15)
    a1ac:	68 00 
    a1ae:	bf 40 03 b0 	mov	#-20477,106(r15);#0xb003, 0x006a(r15)
    a1b2:	6a 00 
  p16[3U] = (uint32_t)0xbf597fc7U;
    a1b4:	bf 40 c7 7f 	mov	#32711,	108(r15);#0x7fc7, 0x006c(r15)
    a1b8:	6c 00 
    a1ba:	bf 40 59 bf 	mov	#-16551,110(r15);#0xbf59, 0x006e(r15)
    a1be:	6e 00 
  p26[0U] = (uint32_t)0xc6e00bf3U;
    a1c0:	bf 40 f3 0b 	mov	#3059,	112(r15);#0x0bf3, 0x0070(r15)
    a1c4:	70 00 
    a1c6:	bf 40 e0 c6 	mov	#-14624,114(r15);#0xc6e0, 0x0072(r15)
    a1ca:	72 00 
  p26[1U] = (uint32_t)0xd5a79147U;
    a1cc:	bf 40 47 91 	mov	#-28345,116(r15);#0x9147, 0x0074(r15)
    a1d0:	74 00 
    a1d2:	bf 40 a7 d5 	mov	#-10841,118(r15);#0xd5a7, 0x0076(r15)
    a1d6:	76 00 
  p26[2U] = (uint32_t)0x06ca6351U;
    a1d8:	bf 40 51 63 	mov	#25425,	120(r15);#0x6351, 0x0078(r15)
    a1dc:	78 00 
    a1de:	bf 40 ca 06 	mov	#1738,	122(r15);#0x06ca, 0x007a(r15)
    a1e2:	7a 00 
  p26[3U] = (uint32_t)0x14292967U;
    a1e4:	bf 40 67 29 	mov	#10599,	124(r15);#0x2967, 0x007c(r15)
    a1e8:	7c 00 
    a1ea:	bf 40 29 14 	mov	#5161,	126(r15);#0x1429, 0x007e(r15)
    a1ee:	7e 00 
  uint32_t *p17 = p3;
  uint32_t *p27 = p3 + (uint32_t)8U;
  uint32_t *p18 = p17;
  uint32_t *p28 = p17 + (uint32_t)4U;
  p18[0U] = (uint32_t)0x27b70a85U;
    a1f0:	bf 40 85 0a 	mov	#2693,	128(r15);#0x0a85, 0x0080(r15)
    a1f4:	80 00 
    a1f6:	bf 40 b7 27 	mov	#10167,	130(r15);#0x27b7, 0x0082(r15)
    a1fa:	82 00 
  p18[1U] = (uint32_t)0x2e1b2138U;
    a1fc:	bf 40 38 21 	mov	#8504,	132(r15);#0x2138, 0x0084(r15)
    a200:	84 00 
    a202:	bf 40 1b 2e 	mov	#11803,	134(r15);#0x2e1b, 0x0086(r15)
    a206:	86 00 
  p18[2U] = (uint32_t)0x4d2c6dfcU;
    a208:	bf 40 fc 6d 	mov	#28156,	136(r15);#0x6dfc, 0x0088(r15)
    a20c:	88 00 
    a20e:	bf 40 2c 4d 	mov	#19756,	138(r15);#0x4d2c, 0x008a(r15)
    a212:	8a 00 
  p18[3U] = (uint32_t)0x53380d13U;
    a214:	bf 40 13 0d 	mov	#3347,	140(r15);#0x0d13, 0x008c(r15)
    a218:	8c 00 
    a21a:	bf 40 38 53 	mov	#21304,	142(r15);#0x5338, 0x008e(r15)
    a21e:	8e 00 
  p28[0U] = (uint32_t)0x650a7354U;
    a220:	bf 40 54 73 	mov	#29524,	144(r15);#0x7354, 0x0090(r15)
    a224:	90 00 
    a226:	bf 40 0a 65 	mov	#25866,	146(r15);#0x650a, 0x0092(r15)
    a22a:	92 00 
  p28[1U] = (uint32_t)0x766a0abbU;
    a22c:	bf 40 bb 0a 	mov	#2747,	148(r15);#0x0abb, 0x0094(r15)
    a230:	94 00 
    a232:	bf 40 6a 76 	mov	#30314,	150(r15);#0x766a, 0x0096(r15)
    a236:	96 00 
  p28[2U] = (uint32_t)0x81c2c92eU;
    a238:	bf 40 2e c9 	mov	#-14034,152(r15);#0xc92e, 0x0098(r15)
    a23c:	98 00 
    a23e:	bf 40 c2 81 	mov	#-32318,154(r15);#0x81c2, 0x009a(r15)
    a242:	9a 00 
  p28[3U] = (uint32_t)0x92722c85U;
    a244:	bf 40 85 2c 	mov	#11397,	156(r15);#0x2c85, 0x009c(r15)
    a248:	9c 00 
    a24a:	bf 40 72 92 	mov	#-28046,158(r15);#0x9272, 0x009e(r15)
    a24e:	9e 00 
  uint32_t *p19 = p27;
  uint32_t *p29 = p27 + (uint32_t)4U;
  p19[0U] = (uint32_t)0xa2bfe8a1U;
    a250:	bf 40 a1 e8 	mov	#-5983,	160(r15);#0xe8a1, 0x00a0(r15)
    a254:	a0 00 
    a256:	bf 40 bf a2 	mov	#-23873,162(r15);#0xa2bf, 0x00a2(r15)
    a25a:	a2 00 
  p19[1U] = (uint32_t)0xa81a664bU;
    a25c:	bf 40 4b 66 	mov	#26187,	164(r15);#0x664b, 0x00a4(r15)
    a260:	a4 00 
    a262:	bf 40 1a a8 	mov	#-22502,166(r15);#0xa81a, 0x00a6(r15)
    a266:	a6 00 
  p19[2U] = (uint32_t)0xc24b8b70U;
    a268:	bf 40 70 8b 	mov	#-29840,168(r15);#0x8b70, 0x00a8(r15)
    a26c:	a8 00 
    a26e:	bf 40 4b c2 	mov	#-15797,170(r15);#0xc24b, 0x00aa(r15)
    a272:	aa 00 
  p19[3U] = (uint32_t)0xc76c51a3U;
    a274:	bf 40 a3 51 	mov	#20899,	172(r15);#0x51a3, 0x00ac(r15)
    a278:	ac 00 
    a27a:	bf 40 6c c7 	mov	#-14484,174(r15);#0xc76c, 0x00ae(r15)
    a27e:	ae 00 
  p29[0U] = (uint32_t)0xd192e819U;
    a280:	bf 40 19 e8 	mov	#-6119,	176(r15);#0xe819, 0x00b0(r15)
    a284:	b0 00 
    a286:	bf 40 92 d1 	mov	#-11886,178(r15);#0xd192, 0x00b2(r15)
    a28a:	b2 00 
  p29[1U] = (uint32_t)0xd6990624U;
    a28c:	bf 40 24 06 	mov	#1572,	180(r15);#0x0624, 0x00b4(r15)
    a290:	b4 00 
    a292:	bf 40 99 d6 	mov	#-10599,182(r15);#0xd699, 0x00b6(r15)
    a296:	b6 00 
  p29[2U] = (uint32_t)0xf40e3585U;
    a298:	bf 40 85 35 	mov	#13701,	184(r15);#0x3585, 0x00b8(r15)
    a29c:	b8 00 
    a29e:	bf 40 0e f4 	mov	#-3058,	186(r15);#0xf40e, 0x00ba(r15)
    a2a2:	ba 00 
  p29[3U] = (uint32_t)0x106aa070U;
    a2a4:	bf 40 70 a0 	mov	#-24464,188(r15);#0xa070, 0x00bc(r15)
    a2a8:	bc 00 
    a2aa:	bf 40 6a 10 	mov	#4202,	190(r15);#0x106a, 0x00be(r15)
    a2ae:	be 00 
  uint32_t *p110 = p4;
  uint32_t *p210 = p4 + (uint32_t)8U;
  uint32_t *p1 = p110;
  uint32_t *p211 = p110 + (uint32_t)4U;
  p1[0U] = (uint32_t)0x19a4c116U;
    a2b0:	bf 40 16 c1 	mov	#-16106,192(r15);#0xc116, 0x00c0(r15)
    a2b4:	c0 00 
    a2b6:	bf 40 a4 19 	mov	#6564,	194(r15);#0x19a4, 0x00c2(r15)
    a2ba:	c2 00 
  p1[1U] = (uint32_t)0x1e376c08U;
    a2bc:	bf 40 08 6c 	mov	#27656,	196(r15);#0x6c08, 0x00c4(r15)
    a2c0:	c4 00 
    a2c2:	bf 40 37 1e 	mov	#7735,	198(r15);#0x1e37, 0x00c6(r15)
    a2c6:	c6 00 
  p1[2U] = (uint32_t)0x2748774cU;
    a2c8:	bf 40 4c 77 	mov	#30540,	200(r15);#0x774c, 0x00c8(r15)
    a2cc:	c8 00 
    a2ce:	bf 40 48 27 	mov	#10056,	202(r15);#0x2748, 0x00ca(r15)
    a2d2:	ca 00 
  p1[3U] = (uint32_t)0x34b0bcb5U;
    a2d4:	bf 40 b5 bc 	mov	#-17227,204(r15);#0xbcb5, 0x00cc(r15)
    a2d8:	cc 00 
    a2da:	bf 40 b0 34 	mov	#13488,	206(r15);#0x34b0, 0x00ce(r15)
    a2de:	ce 00 
  p211[0U] = (uint32_t)0x391c0cb3U;
    a2e0:	bf 40 b3 0c 	mov	#3251,	208(r15);#0x0cb3, 0x00d0(r15)
    a2e4:	d0 00 
    a2e6:	bf 40 1c 39 	mov	#14620,	210(r15);#0x391c, 0x00d2(r15)
    a2ea:	d2 00 
  p211[1U] = (uint32_t)0x4ed8aa4aU;
    a2ec:	bf 40 4a aa 	mov	#-21942,212(r15);#0xaa4a, 0x00d4(r15)
    a2f0:	d4 00 
    a2f2:	bf 40 d8 4e 	mov	#20184,	214(r15);#0x4ed8, 0x00d6(r15)
    a2f6:	d6 00 
  p211[2U] = (uint32_t)0x5b9cca4fU;
    a2f8:	bf 40 4f ca 	mov	#-13745,216(r15);#0xca4f, 0x00d8(r15)
    a2fc:	d8 00 
    a2fe:	bf 40 9c 5b 	mov	#23452,	218(r15);#0x5b9c, 0x00da(r15)
    a302:	da 00 
  p211[3U] = (uint32_t)0x682e6ff3U;
    a304:	bf 40 f3 6f 	mov	#28659,	220(r15);#0x6ff3, 0x00dc(r15)
    a308:	dc 00 
    a30a:	bf 40 2e 68 	mov	#26670,	222(r15);#0x682e, 0x00de(r15)
    a30e:	de 00 
  uint32_t *p111 = p210;
  uint32_t *p212 = p210 + (uint32_t)4U;
  p111[0U] = (uint32_t)0x748f82eeU;
    a310:	bf 40 ee 82 	mov	#-32018,224(r15);#0x82ee, 0x00e0(r15)
    a314:	e0 00 
    a316:	bf 40 8f 74 	mov	#29839,	226(r15);#0x748f, 0x00e2(r15)
    a31a:	e2 00 
  p111[1U] = (uint32_t)0x78a5636fU;
    a31c:	bf 40 6f 63 	mov	#25455,	228(r15);#0x636f, 0x00e4(r15)
    a320:	e4 00 
    a322:	bf 40 a5 78 	mov	#30885,	230(r15);#0x78a5, 0x00e6(r15)
    a326:	e6 00 
  p111[2U] = (uint32_t)0x84c87814U;
    a328:	bf 40 14 78 	mov	#30740,	232(r15);#0x7814, 0x00e8(r15)
    a32c:	e8 00 
    a32e:	bf 40 c8 84 	mov	#-31544,234(r15);#0x84c8, 0x00ea(r15)
    a332:	ea 00 
  p111[3U] = (uint32_t)0x8cc70208U;
    a334:	bf 40 08 02 	mov	#520,	236(r15);#0x0208, 0x00ec(r15)
    a338:	ec 00 
    a33a:	bf 40 c7 8c 	mov	#-29497,238(r15);#0x8cc7, 0x00ee(r15)
    a33e:	ee 00 
  p212[0U] = (uint32_t)0x90befffaU;
    a340:	bf 40 fa ff 	mov	#-6,	240(r15);#0xfffa, 0x00f0(r15)
    a344:	f0 00 
    a346:	bf 40 be 90 	mov	#-28482,242(r15);#0x90be, 0x00f2(r15)
    a34a:	f2 00 
  p212[1U] = (uint32_t)0xa4506cebU;
    a34c:	bf 40 eb 6c 	mov	#27883,	244(r15);#0x6ceb, 0x00f4(r15)
    a350:	f4 00 
    a352:	bf 40 50 a4 	mov	#-23472,246(r15);#0xa450, 0x00f6(r15)
    a356:	f6 00 
  p212[2U] = (uint32_t)0xbef9a3f7U;
    a358:	bf 40 f7 a3 	mov	#-23561,248(r15);#0xa3f7, 0x00f8(r15)
    a35c:	f8 00 
    a35e:	bf 40 f9 be 	mov	#-16647,250(r15);#0xbef9, 0x00fa(r15)
    a362:	fa 00 
  p212[3U] = (uint32_t)0xc67178f2U;
    a364:	bf 40 f2 78 	mov	#30962,	252(r15);#0x78f2, 0x00fc(r15)
    a368:	fc 00 
    a36a:	bf 40 71 c6 	mov	#-14735,254(r15);#0xc671, 0x00fe(r15)
    a36e:	fe 00 
  uint32_t *p112 = h_01;
  uint32_t *p2 = h_01 + (uint32_t)4U;
  p112[0U] = (uint32_t)0x6a09e667U;
    a370:	bf 40 67 e6 	mov	#-6553,	512(r15);#0xe667, 0x0200(r15)
    a374:	00 02 
    a376:	bf 40 09 6a 	mov	#27145,	514(r15);#0x6a09, 0x0202(r15)
    a37a:	02 02 
  p112[1U] = (uint32_t)0xbb67ae85U;
    a37c:	bf 40 85 ae 	mov	#-20859,516(r15);#0xae85, 0x0204(r15)
    a380:	04 02 
    a382:	bf 40 67 bb 	mov	#-17561,518(r15);#0xbb67, 0x0206(r15)
    a386:	06 02 
  p112[2U] = (uint32_t)0x3c6ef372U;
    a388:	bf 40 72 f3 	mov	#-3214,	520(r15);#0xf372, 0x0208(r15)
    a38c:	08 02 
    a38e:	bf 40 6e 3c 	mov	#15470,	522(r15);#0x3c6e, 0x020a(r15)
    a392:	0a 02 
  p112[3U] = (uint32_t)0xa54ff53aU;
    a394:	bf 40 3a f5 	mov	#-2758,	524(r15);#0xf53a, 0x020c(r15)
    a398:	0c 02 
    a39a:	bf 40 4f a5 	mov	#-23217,526(r15);#0xa54f, 0x020e(r15)
    a39e:	0e 02 
  p2[0U] = (uint32_t)0x510e527fU;
    a3a0:	bf 40 7f 52 	mov	#21119,	528(r15);#0x527f, 0x0210(r15)
    a3a4:	10 02 
    a3a6:	bf 40 0e 51 	mov	#20750,	530(r15);#0x510e, 0x0212(r15)
    a3aa:	12 02 
  p2[1U] = (uint32_t)0x9b05688cU;
    a3ac:	bf 40 8c 68 	mov	#26764,	532(r15);#0x688c, 0x0214(r15)
    a3b0:	14 02 
    a3b2:	bf 40 05 9b 	mov	#-25851,534(r15);#0x9b05, 0x0216(r15)
    a3b6:	16 02 
  p2[2U] = (uint32_t)0x1f83d9abU;
    a3b8:	bf 40 ab d9 	mov	#-9813,	536(r15);#0xd9ab, 0x0218(r15)
    a3bc:	18 02 
    a3be:	bf 40 83 1f 	mov	#8067,	538(r15);#0x1f83, 0x021a(r15)
    a3c2:	1a 02 
  p2[3U] = (uint32_t)0x5be0cd19U;
    a3c4:	bf 40 19 cd 	mov	#-13031,540(r15);#0xcd19, 0x021c(r15)
    a3c8:	1c 02 
    a3ca:	bf 40 e0 5b 	mov	#23520,	542(r15);#0x5be0, 0x021e(r15)
    a3ce:	1e 02 
}
    a3d0:	30 41       	ret			

0000a3d2 <Hacl_Impl_HMAC_SHA2_256_xor_bytes_inplace>:
  Hacl_Impl_SHA2_256_update_last(state, input_last, r);
  Hacl_Impl_SHA2_256_finish(state, hash1);
}

static void Hacl_Impl_HMAC_SHA2_256_xor_bytes_inplace(uint8_t *a, uint8_t *b, uint32_t len)
{
    a3d2:	0b 12       	push	r11		
    a3d4:	0a 12       	push	r10		
  for (uint32_t i = (uint32_t)0U; i < len; i = i + (uint32_t)1U)
    a3d6:	0c 93       	tst	r12		
    a3d8:	02 20       	jnz	$+6      	;abs 0xa3de
    a3da:	0d 93       	tst	r13		
    a3dc:	0b 24       	jz	$+24     	;abs 0xa3f4
    a3de:	0a 43       	clr	r10		
    a3e0:	0b 43       	clr	r11		
  {
    uint8_t xi = a[i];
    uint8_t yi = b[i];
    a[i] = xi ^ yi;
    a3e2:	ff ee 00 00 	xor.b	@r14+,	0(r15)	;0x0000(r15)
  Hacl_Impl_SHA2_256_finish(state, hash1);
}

static void Hacl_Impl_HMAC_SHA2_256_xor_bytes_inplace(uint8_t *a, uint8_t *b, uint32_t len)
{
  for (uint32_t i = (uint32_t)0U; i < len; i = i + (uint32_t)1U)
    a3e6:	1a 53       	inc	r10		
    a3e8:	0b 63       	adc	r11		
    a3ea:	1f 53       	inc	r15		
    a3ec:	0a 9c       	cmp	r12,	r10	
    a3ee:	f9 23       	jnz	$-12     	;abs 0xa3e2
    a3f0:	0b 9d       	cmp	r13,	r11	
    a3f2:	f7 23       	jnz	$-16     	;abs 0xa3e2
  {
    uint8_t xi = a[i];
    uint8_t yi = b[i];
    a[i] = xi ^ yi;
  }
}
    a3f4:	3a 41       	pop	r10		
    a3f6:	3b 41       	pop	r11		
    a3f8:	30 41       	ret			

0000a3fa <Hacl_Impl_SHA2_256_update>:
  p2[2U] = (uint32_t)0x1f83d9abU;
  p2[3U] = (uint32_t)0x5be0cd19U;
}

static void Hacl_Impl_SHA2_256_update(uint32_t *state, uint8_t *data)
{
    a3fa:	0b 12       	push	r11		
    a3fc:	0a 12       	push	r10		
    a3fe:	09 12       	push	r9		
    a400:	08 12       	push	r8		
    a402:	07 12       	push	r7		
    a404:	06 12       	push	r6		
    a406:	05 12       	push	r5		
    a408:	04 12       	push	r4		
    a40a:	31 50 64 ff 	add	#-156,	r1	;#0xff64
    a40e:	81 4f 98 00 	mov	r15,	152(r1)	;0x0098(r1)
    a412:	0a 4e       	mov	r14,	r10	
  uint32_t data_w[16U] = { 0U };
    a414:	3d 40 40 00 	mov	#64,	r13	;#0x0040
    a418:	0e 43       	clr	r14		
    a41a:	0f 41       	mov	r1,	r15	
    a41c:	b0 12 28 b1 	call	#0xb128	
  p2[1U] = (uint32_t)0x9b05688cU;
  p2[2U] = (uint32_t)0x1f83d9abU;
  p2[3U] = (uint32_t)0x5be0cd19U;
}

static void Hacl_Impl_SHA2_256_update(uint32_t *state, uint8_t *data)
    a420:	04 41       	mov	r1,	r4	
    a422:	34 50 40 00 	add	#64,	r4	;#0x0040
    a426:	05 41       	mov	r1,	r5	
    a428:	0e 4a       	mov	r10,	r14	
    a42a:	0e 81       	sub	r1,	r14	
  return x;
}

inline static uint32_t load32(uint8_t *b) {
  uint32_t x;
  memcpy(&x, b, 4);
    a42c:	81 4e 68 00 	mov	r14,	104(r1)	;0x0068(r1)
    a430:	1f 41 68 00 	mov	104(r1),r15	;0x0068(r1)
    a434:	0f 55       	add	r5,	r15	
    a436:	f1 4f 60 00 	mov.b	@r15+,	96(r1)	;0x0060(r1)
    a43a:	f1 4f 61 00 	mov.b	@r15+,	97(r1)	;0x0061(r1)
    a43e:	f1 4f 62 00 	mov.b	@r15+,	98(r1)	;0x0062(r1)
    a442:	e1 4f 63 00 	mov.b	@r15,	99(r1)	;0x0063(r1)
  return x;
    a446:	1e 41 62 00 	mov	98(r1),	r14	;0x0062(r1)
Hacl_Hash_Lib_LoadStore_uint32s_from_be_bytes(uint32_t *output, uint8_t *input, uint32_t len)
{
  for (uint32_t i = (uint32_t)0U; i < len; i = i + (uint32_t)1U)
  {
    uint8_t *x0 = input + (uint32_t)4U * i;
    uint32_t inputi = load32_be(x0);
    a44a:	5f 41 60 00 	mov.b	96(r1),	r15	;0x0060(r1)
    a44e:	81 43 64 00 	mov	#0,	100(r1)	;r3 As==00, 0x0064(r1)
    a452:	8f 10       	swpb	r15		
    a454:	81 4f 66 00 	mov	r15,	102(r1)	;0x0066(r1)
    a458:	0f 4e       	mov	r14,	r15	
    a45a:	8f 10       	swpb	r15		
    a45c:	46 4f       	mov.b	r15,	r6	
    a45e:	07 43       	clr	r7		
    a460:	18 41 64 00 	mov	100(r1),r8	;0x0064(r1)
    a464:	19 41 66 00 	mov	102(r1),r9	;0x0066(r1)
    a468:	08 d6       	bis	r6,	r8	
    a46a:	09 d7       	bis	r7,	r9	
    a46c:	1c 41 60 00 	mov	96(r1),	r12	;0x0060(r1)
    a470:	0d 4e       	mov	r14,	r13	
    a472:	8c 10       	swpb	r12		
    a474:	8d 10       	swpb	r13		
    a476:	4c ed       	xor.b	r13,	r12	
    a478:	0c ed       	xor	r13,	r12	
    a47a:	4d 4d       	mov.b	r13,	r13	
    a47c:	3c f0 00 ff 	and	#-256,	r12	;#0xff00
    a480:	0d f3       	and	#0,	r13	;r3 As==00
    a482:	08 dc       	bis	r12,	r8	
    a484:	09 dd       	bis	r13,	r9	
    a486:	1a 41 60 00 	mov	96(r1),	r10	;0x0060(r1)
    a48a:	0b 4e       	mov	r14,	r11	
    a48c:	4b ea       	xor.b	r10,	r11	
    a48e:	0b ea       	xor	r10,	r11	
    a490:	8b 10       	swpb	r11		
    a492:	4a 4a       	mov.b	r10,	r10	
    a494:	8a 10       	swpb	r10		
    a496:	0c 4a       	mov	r10,	r12	
    a498:	0d 4b       	mov	r11,	r13	
    a49a:	0c f3       	and	#0,	r12	;r3 As==00
    a49c:	3d f0 ff 00 	and	#255,	r13	;#0x00ff
    a4a0:	0a 48       	mov	r8,	r10	
    a4a2:	0b 49       	mov	r9,	r11	
    a4a4:	0a dc       	bis	r12,	r10	
    a4a6:	0b dd       	bis	r13,	r11	
    a4a8:	85 4a 00 00 	mov	r10,	0(r5)	;0x0000(r5)
    a4ac:	85 4b 02 00 	mov	r11,	2(r5)	;0x0002(r5)
    output[i] = inputi;
    a4b0:	25 52       	add	#4,	r5	;r2 As==10
#include "Hacl_HMAC_SHA2_256.h"

static void
Hacl_Hash_Lib_LoadStore_uint32s_from_be_bytes(uint32_t *output, uint8_t *input, uint32_t len)
{
  for (uint32_t i = (uint32_t)0U; i < len; i = i + (uint32_t)1U)
    a4b2:	05 94       	cmp	r4,	r5	
    a4b4:	bd 23       	jnz	$-132    	;abs 0xa430

static void Hacl_Impl_SHA2_256_update(uint32_t *state, uint8_t *data)
{
  uint32_t data_w[16U] = { 0U };
  Hacl_Hash_Lib_LoadStore_uint32s_from_be_bytes(data_w, data, (uint32_t)16U);
  uint32_t *hash_w = state + (uint32_t)128U;
    a4b6:	1b 41 98 00 	mov	152(r1),r11	;0x0098(r1)
    a4ba:	3b 50 00 02 	add	#512,	r11	;#0x0200
    a4be:	81 4b 9a 00 	mov	r11,	154(r1)	;0x009a(r1)
    a4c2:	0c 41       	mov	r1,	r12	
  uint32_t *ws_w = state + (uint32_t)64U;
    a4c4:	1a 41 98 00 	mov	152(r1),r10	;0x0098(r1)
    a4c8:	3a 50 00 01 	add	#256,	r10	;#0x0100
    a4cc:	81 4a 6c 00 	mov	r10,	108(r1)	;0x006c(r1)
    a4d0:	0d 4a       	mov	r10,	r13	
  uint32_t *k_w = state;
  uint32_t *counter_w = state + (uint32_t)136U;
  for (uint32_t i = (uint32_t)0U; i < (uint32_t)16U; i = i + (uint32_t)1U)
  {
    uint32_t b = data_w[i];
    ws_w[i] = b;
    a4d2:	bd 4c 00 00 	mov	@r12+,	0(r13)	;0x0000(r13)
    a4d6:	bd 4c 02 00 	mov	@r12+,	2(r13)	;0x0002(r13)
    a4da:	2d 52       	add	#4,	r13	;r2 As==10
  Hacl_Hash_Lib_LoadStore_uint32s_from_be_bytes(data_w, data, (uint32_t)16U);
  uint32_t *hash_w = state + (uint32_t)128U;
  uint32_t *ws_w = state + (uint32_t)64U;
  uint32_t *k_w = state;
  uint32_t *counter_w = state + (uint32_t)136U;
  for (uint32_t i = (uint32_t)0U; i < (uint32_t)16U; i = i + (uint32_t)1U)
    a4dc:	0c 94       	cmp	r4,	r12	
    a4de:	f9 23       	jnz	$-12     	;abs 0xa4d2
    a4e0:	1f 41 98 00 	mov	152(r1),r15	;0x0098(r1)
    a4e4:	0e 43       	clr	r14		
    a4e6:	81 4e 68 00 	mov	r14,	104(r1)	;0x0068(r1)
    ws_w[i] = b;
  }
  for (uint32_t i = (uint32_t)16U; i < (uint32_t)64U; i = i + (uint32_t)1U)
  {
    uint32_t t16 = ws_w[i - (uint32_t)16U];
    uint32_t t15 = ws_w[i - (uint32_t)15U];
    a4ea:	1e 4f 06 01 	mov	262(r15),r14	;0x0106(r15)
    uint32_t t7 = ws_w[i - (uint32_t)7U];
    uint32_t t2 = ws_w[i - (uint32_t)2U];
    a4ee:	16 4f 38 01 	mov	312(r15),r6	;0x0138(r15)
    a4f2:	17 4f 3a 01 	mov	314(r15),r7	;0x013a(r15)
    ws_w[i] =
      ((t2 >> (uint32_t)17U | t2 << ((uint32_t)32U - (uint32_t)17U))
      ^ ((t2 >> (uint32_t)19U | t2 << ((uint32_t)32U - (uint32_t)19U)) ^ t2 >> (uint32_t)10U))
      +
    a4f6:	18 4f 24 01 	mov	292(r15),r8	;0x0124(r15)
    a4fa:	19 4f 26 01 	mov	294(r15),r9	;0x0126(r15)
    a4fe:	18 5f 00 01 	add	256(r15),r8	;0x0100(r15)
    a502:	19 6f 02 01 	addc	258(r15),r9	;0x0102(r15)
    uint32_t t15 = ws_w[i - (uint32_t)15U];
    uint32_t t7 = ws_w[i - (uint32_t)7U];
    uint32_t t2 = ws_w[i - (uint32_t)2U];
    ws_w[i] =
      ((t2 >> (uint32_t)17U | t2 << ((uint32_t)32U - (uint32_t)17U))
      ^ ((t2 >> (uint32_t)19U | t2 << ((uint32_t)32U - (uint32_t)19U)) ^ t2 >> (uint32_t)10U))
    a506:	0a 46       	mov	r6,	r10	
    a508:	12 c3       	clrc			
    a50a:	0a 10       	rrc	r10		
    a50c:	12 c3       	clrc			
    a50e:	0a 10       	rrc	r10		
    a510:	12 c3       	clrc			
    a512:	0a 10       	rrc	r10		
    a514:	4d 47       	mov.b	r7,	r13	
    a516:	8d 10       	swpb	r13		
    a518:	0d 5d       	rla	r13		
    a51a:	0d 5d       	rla	r13		
    a51c:	0d 5d       	rla	r13		
    a51e:	0d 5d       	rla	r13		
    a520:	0d 5d       	rla	r13		
    a522:	0a dd       	bis	r13,	r10	
    a524:	81 4a 70 00 	mov	r10,	112(r1)	;0x0070(r1)
    a528:	0a 47       	mov	r7,	r10	
    a52a:	12 c3       	clrc			
    a52c:	0a 10       	rrc	r10		
    a52e:	12 c3       	clrc			
    a530:	0a 10       	rrc	r10		
    a532:	12 c3       	clrc			
    a534:	0a 10       	rrc	r10		
    a536:	4d 46       	mov.b	r6,	r13	
    a538:	8d 10       	swpb	r13		
    a53a:	0d 5d       	rla	r13		
    a53c:	0d 5d       	rla	r13		
    a53e:	0d 5d       	rla	r13		
    a540:	0d 5d       	rla	r13		
    a542:	0d 5d       	rla	r13		
    a544:	0a dd       	bis	r13,	r10	
    a546:	81 4a 6e 00 	mov	r10,	110(r1)	;0x006e(r1)
    uint32_t t16 = ws_w[i - (uint32_t)16U];
    uint32_t t15 = ws_w[i - (uint32_t)15U];
    uint32_t t7 = ws_w[i - (uint32_t)7U];
    uint32_t t2 = ws_w[i - (uint32_t)2U];
    ws_w[i] =
      ((t2 >> (uint32_t)17U | t2 << ((uint32_t)32U - (uint32_t)17U))
    a54a:	0a 46       	mov	r6,	r10	
    a54c:	12 c3       	clrc			
    a54e:	0a 10       	rrc	r10		
    a550:	0d 47       	mov	r7,	r13	
    a552:	0d 11       	rra	r13		
    a554:	0d 43       	clr	r13		
    a556:	0d 10       	rrc	r13		
    a558:	0a dd       	bis	r13,	r10	
    a55a:	81 4a 74 00 	mov	r10,	116(r1)	;0x0074(r1)
    a55e:	0a 47       	mov	r7,	r10	
    a560:	12 c3       	clrc			
    a562:	0a 10       	rrc	r10		
    a564:	0d 46       	mov	r6,	r13	
    a566:	0d 11       	rra	r13		
    a568:	0d 43       	clr	r13		
    a56a:	0d 10       	rrc	r13		
    a56c:	0a dd       	bis	r13,	r10	
    a56e:	81 4a 72 00 	mov	r10,	114(r1)	;0x0072(r1)
      ^ ((t2 >> (uint32_t)19U | t2 << ((uint32_t)32U - (uint32_t)19U)) ^ t2 >> (uint32_t)10U))
    a572:	1c 41 6e 00 	mov	110(r1),r12	;0x006e(r1)
    a576:	1d 41 70 00 	mov	112(r1),r13	;0x0070(r1)
    a57a:	1c e1 72 00 	xor	114(r1),r12	;0x0072(r1)
    a57e:	1d e1 74 00 	xor	116(r1),r13	;0x0074(r1)
    a582:	0a 46       	mov	r6,	r10	
    a584:	0b 47       	mov	r7,	r11	
    a586:	8a 10       	swpb	r10		
    a588:	8b 10       	swpb	r11		
    a58a:	4a eb       	xor.b	r11,	r10	
    a58c:	0a eb       	xor	r11,	r10	
    a58e:	4b 4b       	mov.b	r11,	r11	
    a590:	12 c3       	clrc			
    a592:	0b 10       	rrc	r11		
    a594:	0a 10       	rrc	r10		
    a596:	12 c3       	clrc			
    a598:	0b 10       	rrc	r11		
    a59a:	0a 10       	rrc	r10		
    a59c:	0c ea       	xor	r10,	r12	
    a59e:	0d eb       	xor	r11,	r13	
      +
        t7
        +
    a5a0:	06 48       	mov	r8,	r6	
    a5a2:	07 49       	mov	r9,	r7	
    a5a4:	06 5c       	add	r12,	r6	
    a5a6:	07 6d       	addc	r13,	r7	
          ((t15 >> (uint32_t)7U | t15 << ((uint32_t)32U - (uint32_t)7U))
          ^ ((t15 >> (uint32_t)18U | t15 << ((uint32_t)32U - (uint32_t)18U)) ^ t15 >> (uint32_t)3U))
    a5a8:	1a 4f 04 01 	mov	260(r15),r10	;0x0104(r15)
    a5ac:	12 c3       	clrc			
    a5ae:	0a 10       	rrc	r10		
    a5b0:	12 c3       	clrc			
    a5b2:	0a 10       	rrc	r10		
    a5b4:	4d 4e       	mov.b	r14,	r13	
    a5b6:	8d 10       	swpb	r13		
    a5b8:	0d 5d       	rla	r13		
    a5ba:	0d 5d       	rla	r13		
    a5bc:	0d 5d       	rla	r13		
    a5be:	0d 5d       	rla	r13		
    a5c0:	0d 5d       	rla	r13		
    a5c2:	0d 5d       	rla	r13		
    a5c4:	0a dd       	bis	r13,	r10	
    a5c6:	81 4a 78 00 	mov	r10,	120(r1)	;0x0078(r1)
    a5ca:	0a 4e       	mov	r14,	r10	
    a5cc:	12 c3       	clrc			
    a5ce:	0a 10       	rrc	r10		
    a5d0:	12 c3       	clrc			
    a5d2:	0a 10       	rrc	r10		
    a5d4:	5d 4f 04 01 	mov.b	260(r15),r13	;0x0104(r15)
    a5d8:	8d 10       	swpb	r13		
    a5da:	0d 5d       	rla	r13		
    a5dc:	0d 5d       	rla	r13		
    a5de:	0d 5d       	rla	r13		
    a5e0:	0d 5d       	rla	r13		
    a5e2:	0d 5d       	rla	r13		
    a5e4:	0d 5d       	rla	r13		
    a5e6:	0a dd       	bis	r13,	r10	
    a5e8:	81 4a 76 00 	mov	r10,	118(r1)	;0x0076(r1)
      ((t2 >> (uint32_t)17U | t2 << ((uint32_t)32U - (uint32_t)17U))
      ^ ((t2 >> (uint32_t)19U | t2 << ((uint32_t)32U - (uint32_t)19U)) ^ t2 >> (uint32_t)10U))
      +
        t7
        +
          ((t15 >> (uint32_t)7U | t15 << ((uint32_t)32U - (uint32_t)7U))
    a5ec:	5a 4f 04 01 	mov.b	260(r15),r10	;0x0104(r15)
    a5f0:	8a 10       	swpb	r10		
    a5f2:	0a 5a       	rla	r10		
    a5f4:	0d 4e       	mov	r14,	r13	
    a5f6:	12 c3       	clrc			
    a5f8:	0d 10       	rrc	r13		
    a5fa:	12 c3       	clrc			
    a5fc:	0d 10       	rrc	r13		
    a5fe:	12 c3       	clrc			
    a600:	0d 10       	rrc	r13		
    a602:	12 c3       	clrc			
    a604:	0d 10       	rrc	r13		
    a606:	12 c3       	clrc			
    a608:	0d 10       	rrc	r13		
    a60a:	12 c3       	clrc			
    a60c:	0d 10       	rrc	r13		
    a60e:	12 c3       	clrc			
    a610:	0d 10       	rrc	r13		
    a612:	05 4a       	mov	r10,	r5	
    a614:	05 dd       	bis	r13,	r5	
    a616:	4a 4e       	mov.b	r14,	r10	
    a618:	8a 10       	swpb	r10		
    a61a:	0a 5a       	rla	r10		
    a61c:	1d 4f 04 01 	mov	260(r15),r13	;0x0104(r15)
    a620:	12 c3       	clrc			
    a622:	0d 10       	rrc	r13		
    a624:	12 c3       	clrc			
    a626:	0d 10       	rrc	r13		
    a628:	12 c3       	clrc			
    a62a:	0d 10       	rrc	r13		
    a62c:	12 c3       	clrc			
    a62e:	0d 10       	rrc	r13		
    a630:	12 c3       	clrc			
    a632:	0d 10       	rrc	r13		
    a634:	12 c3       	clrc			
    a636:	0d 10       	rrc	r13		
    a638:	12 c3       	clrc			
    a63a:	0d 10       	rrc	r13		
    a63c:	04 4a       	mov	r10,	r4	
    a63e:	04 dd       	bis	r13,	r4	
          ^ ((t15 >> (uint32_t)18U | t15 << ((uint32_t)32U - (uint32_t)18U)) ^ t15 >> (uint32_t)3U))
    a640:	18 41 76 00 	mov	118(r1),r8	;0x0076(r1)
    a644:	19 41 78 00 	mov	120(r1),r9	;0x0078(r1)
    a648:	08 e4       	xor	r4,	r8	
    a64a:	09 e5       	xor	r5,	r9	
    a64c:	1a 4f 04 01 	mov	260(r15),r10	;0x0104(r15)
    a650:	0b 4e       	mov	r14,	r11	
    a652:	12 c3       	clrc			
    a654:	0b 10       	rrc	r11		
    a656:	0a 10       	rrc	r10		
    a658:	12 c3       	clrc			
    a65a:	0b 10       	rrc	r11		
    a65c:	0a 10       	rrc	r10		
    a65e:	12 c3       	clrc			
    a660:	0b 10       	rrc	r11		
    a662:	0a 10       	rrc	r10		
    a664:	0c 48       	mov	r8,	r12	
    a666:	0d 49       	mov	r9,	r13	
    a668:	0c ea       	xor	r10,	r12	
    a66a:	0d eb       	xor	r11,	r13	
          + t16;
    a66c:	0a 46       	mov	r6,	r10	
    a66e:	0b 47       	mov	r7,	r11	
    a670:	0a 5c       	add	r12,	r10	
    a672:	0b 6d       	addc	r13,	r11	
    a674:	8f 4a 40 01 	mov	r10,	320(r15);0x0140(r15)
    a678:	8f 4b 42 01 	mov	r11,	322(r15);0x0142(r15)
  {
    uint32_t t16 = ws_w[i - (uint32_t)16U];
    uint32_t t15 = ws_w[i - (uint32_t)15U];
    uint32_t t7 = ws_w[i - (uint32_t)7U];
    uint32_t t2 = ws_w[i - (uint32_t)2U];
    ws_w[i] =
    a67c:	a1 52 68 00 	add	#4,	104(r1)	;r2 As==10, 0x0068(r1)
    a680:	2f 52       	add	#4,	r15	;r2 As==10
  for (uint32_t i = (uint32_t)0U; i < (uint32_t)16U; i = i + (uint32_t)1U)
  {
    uint32_t b = data_w[i];
    ws_w[i] = b;
  }
  for (uint32_t i = (uint32_t)16U; i < (uint32_t)64U; i = i + (uint32_t)1U)
    a682:	b1 90 c0 00 	cmp	#192,	104(r1)	;#0x00c0, 0x0068(r1)
    a686:	68 00 
    a688:	30 23       	jnz	$-414    	;abs 0xa4ea
        +
          ((t15 >> (uint32_t)7U | t15 << ((uint32_t)32U - (uint32_t)7U))
          ^ ((t15 >> (uint32_t)18U | t15 << ((uint32_t)32U - (uint32_t)18U)) ^ t15 >> (uint32_t)3U))
          + t16;
  }
  uint32_t hash_0[8U] = { 0U };
    a68a:	3d 40 20 00 	mov	#32,	r13	;#0x0020
    a68e:	0e 43       	clr	r14		
    a690:	0f 41       	mov	r1,	r15	
    a692:	3f 50 40 00 	add	#64,	r15	;#0x0040
    a696:	b0 12 28 b1 	call	#0xb128	
  memcpy(hash_0, hash_w, (uint32_t)8U * sizeof hash_w[0U]);
    a69a:	3d 40 20 00 	mov	#32,	r13	;#0x0020
    a69e:	1e 41 9a 00 	mov	154(r1),r14	;0x009a(r1)
    a6a2:	0f 41       	mov	r1,	r15	
    a6a4:	3f 50 40 00 	add	#64,	r15	;#0x0040
    a6a8:	b0 12 2e b0 	call	#0xb02e	
    a6ac:	18 41 50 00 	mov	80(r1),	r8	;0x0050(r1)
    a6b0:	19 41 52 00 	mov	82(r1),	r9	;0x0052(r1)
  p2[1U] = (uint32_t)0x9b05688cU;
  p2[2U] = (uint32_t)0x1f83d9abU;
  p2[3U] = (uint32_t)0x5be0cd19U;
}

static void Hacl_Impl_SHA2_256_update(uint32_t *state, uint8_t *data)
    a6b4:	1b 41 98 00 	mov	152(r1),r11	;0x0098(r1)
    a6b8:	3b 50 00 02 	add	#512,	r11	;#0x0200
    a6bc:	81 4b 96 00 	mov	r11,	150(r1)	;0x0096(r1)
    a6c0:	04 3c       	jmp	$+10     	;abs 0xa6ca
    uint32_t *p2 = hash_0 + (uint32_t)4U;
    p1[0U] = x1;
    p1[1U] = a;
    p1[2U] = b;
    p1[3U] = c;
    p2[0U] = x5;
    a6c2:	18 41 92 00 	mov	146(r1),r8	;0x0092(r1)
    a6c6:	19 41 94 00 	mov	148(r1),r9	;0x0094(r1)
  }
  uint32_t hash_0[8U] = { 0U };
  memcpy(hash_0, hash_w, (uint32_t)8U * sizeof hash_w[0U]);
  for (uint32_t i = (uint32_t)0U; i < (uint32_t)64U; i = i + (uint32_t)1U)
  {
    uint32_t a = hash_0[0U];
    a6ca:	16 41 40 00 	mov	64(r1),	r6	;0x0040(r1)
    a6ce:	17 41 42 00 	mov	66(r1),	r7	;0x0042(r1)
    uint32_t b = hash_0[1U];
    a6d2:	91 41 44 00 	mov	68(r1),	100(r1)	;0x0044(r1), 0x0064(r1)
    a6d6:	64 00 
    a6d8:	91 41 46 00 	mov	70(r1),	102(r1)	;0x0046(r1), 0x0066(r1)
    a6dc:	66 00 
    uint32_t c = hash_0[2U];
    a6de:	91 41 48 00 	mov	72(r1),	104(r1)	;0x0048(r1), 0x0068(r1)
    a6e2:	68 00 
    a6e4:	91 41 4a 00 	mov	74(r1),	106(r1)	;0x004a(r1), 0x006a(r1)
    a6e8:	6a 00 
    uint32_t d = hash_0[3U];
    uint32_t e = hash_0[4U];
    uint32_t f1 = hash_0[5U];
    a6ea:	91 41 54 00 	mov	84(r1),	110(r1)	;0x0054(r1), 0x006e(r1)
    a6ee:	6e 00 
    a6f0:	91 41 56 00 	mov	86(r1),	112(r1)	;0x0056(r1), 0x0070(r1)
    a6f4:	70 00 
    uint32_t g = hash_0[6U];
    a6f6:	91 41 58 00 	mov	88(r1),	114(r1)	;0x0058(r1), 0x0072(r1)
    a6fa:	72 00 
    a6fc:	91 41 5a 00 	mov	90(r1),	116(r1)	;0x005a(r1), 0x0074(r1)
    a700:	74 00 
    uint32_t kt = k_w[i];
    uint32_t wst = ws_w[i];
    uint32_t
    t1 =
      h
      +
    a702:	1a 41 6c 00 	mov	108(r1),r10	;0x006c(r1)
    a706:	1c 4a 00 ff 	mov	-256(r10),r12	;0xff00(r10)
    a70a:	1d 4a 02 ff 	mov	-254(r10),r13	;0xff02(r10)
    a70e:	2c 5a       	add	@r10,	r12	
    a710:	1d 6a 02 00 	addc	2(r10),	r13	;0x0002(r10)
        ((e >> (uint32_t)6U | e << ((uint32_t)32U - (uint32_t)6U))
        ^
          ((e >> (uint32_t)11U | e << ((uint32_t)32U - (uint32_t)11U))
          ^ (e >> (uint32_t)25U | e << ((uint32_t)32U - (uint32_t)25U))))
      + ((e & f1) ^ (~e & g))
    a714:	0a 4c       	mov	r12,	r10	
    a716:	0b 4d       	mov	r13,	r11	
    a718:	1a 51 5c 00 	add	92(r1),	r10	;0x005c(r1)
    a71c:	1b 61 5e 00 	addc	94(r1),	r11	;0x005e(r1)
    t1 =
      h
      +
        ((e >> (uint32_t)6U | e << ((uint32_t)32U - (uint32_t)6U))
        ^
          ((e >> (uint32_t)11U | e << ((uint32_t)32U - (uint32_t)11U))
    a720:	0d 49       	mov	r9,	r13	
    a722:	0d 5d       	rla	r13		
    a724:	0d 5d       	rla	r13		
    a726:	0d 5d       	rla	r13		
    a728:	0d 5d       	rla	r13		
    a72a:	0d 5d       	rla	r13		
    a72c:	0f 48       	mov	r8,	r15	
    a72e:	8f 10       	swpb	r15		
    a730:	4f 4f       	mov.b	r15,	r15	
    a732:	12 c3       	clrc			
    a734:	0f 10       	rrc	r15		
    a736:	12 c3       	clrc			
    a738:	0f 10       	rrc	r15		
    a73a:	12 c3       	clrc			
    a73c:	0f 10       	rrc	r15		
    a73e:	0d df       	bis	r15,	r13	
    a740:	81 4d 7a 00 	mov	r13,	122(r1)	;0x007a(r1)
    a744:	0d 48       	mov	r8,	r13	
    a746:	0d 5d       	rla	r13		
    a748:	0d 5d       	rla	r13		
    a74a:	0d 5d       	rla	r13		
    a74c:	0d 5d       	rla	r13		
    a74e:	0d 5d       	rla	r13		
    a750:	0f 49       	mov	r9,	r15	
    a752:	8f 10       	swpb	r15		
    a754:	4f 4f       	mov.b	r15,	r15	
    a756:	12 c3       	clrc			
    a758:	0f 10       	rrc	r15		
    a75a:	12 c3       	clrc			
    a75c:	0f 10       	rrc	r15		
    a75e:	12 c3       	clrc			
    a760:	0f 10       	rrc	r15		
    a762:	0d df       	bis	r15,	r13	
    a764:	81 4d 7c 00 	mov	r13,	124(r1)	;0x007c(r1)
    uint32_t wst = ws_w[i];
    uint32_t
    t1 =
      h
      +
        ((e >> (uint32_t)6U | e << ((uint32_t)32U - (uint32_t)6U))
    a768:	4d 49       	mov.b	r9,	r13	
    a76a:	8d 10       	swpb	r13		
    a76c:	0d 5d       	rla	r13		
    a76e:	0d 5d       	rla	r13		
    a770:	0f 48       	mov	r8,	r15	
    a772:	12 c3       	clrc			
    a774:	0f 10       	rrc	r15		
    a776:	12 c3       	clrc			
    a778:	0f 10       	rrc	r15		
    a77a:	12 c3       	clrc			
    a77c:	0f 10       	rrc	r15		
    a77e:	12 c3       	clrc			
    a780:	0f 10       	rrc	r15		
    a782:	12 c3       	clrc			
    a784:	0f 10       	rrc	r15		
    a786:	12 c3       	clrc			
    a788:	0f 10       	rrc	r15		
    a78a:	0d df       	bis	r15,	r13	
    a78c:	81 4d 7e 00 	mov	r13,	126(r1)	;0x007e(r1)
    a790:	4d 48       	mov.b	r8,	r13	
    a792:	8d 10       	swpb	r13		
    a794:	0d 5d       	rla	r13		
    a796:	0d 5d       	rla	r13		
    a798:	0f 49       	mov	r9,	r15	
    a79a:	12 c3       	clrc			
    a79c:	0f 10       	rrc	r15		
    a79e:	12 c3       	clrc			
    a7a0:	0f 10       	rrc	r15		
    a7a2:	12 c3       	clrc			
    a7a4:	0f 10       	rrc	r15		
    a7a6:	12 c3       	clrc			
    a7a8:	0f 10       	rrc	r15		
    a7aa:	12 c3       	clrc			
    a7ac:	0f 10       	rrc	r15		
    a7ae:	12 c3       	clrc			
    a7b0:	0f 10       	rrc	r15		
    a7b2:	0d df       	bis	r15,	r13	
    a7b4:	81 4d 80 00 	mov	r13,	128(r1)	;0x0080(r1)
        ^
          ((e >> (uint32_t)11U | e << ((uint32_t)32U - (uint32_t)11U))
          ^ (e >> (uint32_t)25U | e << ((uint32_t)32U - (uint32_t)25U))))
    a7b8:	14 41 7a 00 	mov	122(r1),r4	;0x007a(r1)
    a7bc:	15 41 7c 00 	mov	124(r1),r5	;0x007c(r1)
    a7c0:	14 e1 7e 00 	xor	126(r1),r4	;0x007e(r1)
    a7c4:	15 e1 80 00 	xor	128(r1),r5	;0x0080(r1)
    a7c8:	0d 49       	mov	r9,	r13	
    a7ca:	8d 10       	swpb	r13		
    a7cc:	4d 4d       	mov.b	r13,	r13	
    a7ce:	12 c3       	clrc			
    a7d0:	0d 10       	rrc	r13		
    a7d2:	0f 48       	mov	r8,	r15	
    a7d4:	0f 5f       	rla	r15		
    a7d6:	0f 5f       	rla	r15		
    a7d8:	0f 5f       	rla	r15		
    a7da:	0f 5f       	rla	r15		
    a7dc:	0f 5f       	rla	r15		
    a7de:	0f 5f       	rla	r15		
    a7e0:	0f 5f       	rla	r15		
    a7e2:	0d df       	bis	r15,	r13	
    a7e4:	81 4d 82 00 	mov	r13,	130(r1)	;0x0082(r1)
    a7e8:	0d 48       	mov	r8,	r13	
    a7ea:	8d 10       	swpb	r13		
    a7ec:	4d 4d       	mov.b	r13,	r13	
    a7ee:	12 c3       	clrc			
    a7f0:	0d 10       	rrc	r13		
    a7f2:	0f 49       	mov	r9,	r15	
    a7f4:	0f 5f       	rla	r15		
    a7f6:	0f 5f       	rla	r15		
    a7f8:	0f 5f       	rla	r15		
    a7fa:	0f 5f       	rla	r15		
    a7fc:	0f 5f       	rla	r15		
    a7fe:	0f 5f       	rla	r15		
    a800:	0f 5f       	rla	r15		
    a802:	0d df       	bis	r15,	r13	
    a804:	81 4d 84 00 	mov	r13,	132(r1)	;0x0084(r1)
    uint32_t
    t1 =
      h
      +
        ((e >> (uint32_t)6U | e << ((uint32_t)32U - (uint32_t)6U))
        ^
    a808:	1c 41 82 00 	mov	130(r1),r12	;0x0082(r1)
    a80c:	1d 41 84 00 	mov	132(r1),r13	;0x0084(r1)
    a810:	0c e4       	xor	r4,	r12	
    a812:	0d e5       	xor	r5,	r13	
          ((e >> (uint32_t)11U | e << ((uint32_t)32U - (uint32_t)11U))
          ^ (e >> (uint32_t)25U | e << ((uint32_t)32U - (uint32_t)25U))))
      + ((e & f1) ^ (~e & g))
      + kt
    a814:	0a 5c       	add	r12,	r10	
    a816:	0b 6d       	addc	r13,	r11	
      +
        ((e >> (uint32_t)6U | e << ((uint32_t)32U - (uint32_t)6U))
        ^
          ((e >> (uint32_t)11U | e << ((uint32_t)32U - (uint32_t)11U))
          ^ (e >> (uint32_t)25U | e << ((uint32_t)32U - (uint32_t)25U))))
      + ((e & f1) ^ (~e & g))
    a818:	1e 41 72 00 	mov	114(r1),r14	;0x0072(r1)
    a81c:	1f 41 74 00 	mov	116(r1),r15	;0x0074(r1)
    a820:	0e c8       	bic	r8,	r14	
    a822:	0f c9       	bic	r9,	r15	
    a824:	1c 41 6e 00 	mov	110(r1),r12	;0x006e(r1)
    a828:	1d 41 70 00 	mov	112(r1),r13	;0x0070(r1)
    a82c:	0c f8       	and	r8,	r12	
    a82e:	0d f9       	and	r9,	r13	
    a830:	0e ec       	xor	r12,	r14	
    a832:	0f ed       	xor	r13,	r15	
    uint32_t g = hash_0[6U];
    uint32_t h = hash_0[7U];
    uint32_t kt = k_w[i];
    uint32_t wst = ws_w[i];
    uint32_t
    t1 =
    a834:	0c 4a       	mov	r10,	r12	
    a836:	0d 4b       	mov	r11,	r13	
    a838:	0c 5e       	add	r14,	r12	
    a83a:	0d 6f       	addc	r15,	r13	
    a83c:	81 4c 76 00 	mov	r12,	118(r1)	;0x0076(r1)
    a840:	81 4d 78 00 	mov	r13,	120(r1)	;0x0078(r1)
      ^
        ((a >> (uint32_t)13U | a << ((uint32_t)32U - (uint32_t)13U))
        ^ (a >> (uint32_t)22U | a << ((uint32_t)32U - (uint32_t)22U))))
      + ((a & b) ^ ((a & c) ^ (b & c)));
    uint32_t x1 = t1 + t2;
    uint32_t x5 = d + t1;
    a844:	1c 51 4c 00 	add	76(r1),	r12	;0x004c(r1)
    a848:	1d 61 4e 00 	addc	78(r1),	r13	;0x004e(r1)
    a84c:	81 4c 92 00 	mov	r12,	146(r1)	;0x0092(r1)
    a850:	81 4d 94 00 	mov	r13,	148(r1)	;0x0094(r1)
    t2 =
      ((a >> (uint32_t)2U | a << ((uint32_t)32U - (uint32_t)2U))
      ^
        ((a >> (uint32_t)13U | a << ((uint32_t)32U - (uint32_t)13U))
        ^ (a >> (uint32_t)22U | a << ((uint32_t)32U - (uint32_t)22U))))
      + ((a & b) ^ ((a & c) ^ (b & c)));
    a854:	1e 41 64 00 	mov	100(r1),r14	;0x0064(r1)
    a858:	1f 41 66 00 	mov	102(r1),r15	;0x0066(r1)
    a85c:	1e e1 68 00 	xor	104(r1),r14	;0x0068(r1)
    a860:	1f e1 6a 00 	xor	106(r1),r15	;0x006a(r1)
    a864:	0a 4e       	mov	r14,	r10	
    a866:	0b 4f       	mov	r15,	r11	
    a868:	0a f6       	and	r6,	r10	
    a86a:	0b f7       	and	r7,	r11	
    a86c:	1c 41 68 00 	mov	104(r1),r12	;0x0068(r1)
    a870:	1d 41 6a 00 	mov	106(r1),r13	;0x006a(r1)
    a874:	1c f1 64 00 	and	100(r1),r12	;0x0064(r1)
    a878:	1d f1 66 00 	and	102(r1),r13	;0x0066(r1)
    a87c:	0a ec       	xor	r12,	r10	
    a87e:	0b ed       	xor	r13,	r11	
      + wst;
    uint32_t
    t2 =
      ((a >> (uint32_t)2U | a << ((uint32_t)32U - (uint32_t)2U))
      ^
        ((a >> (uint32_t)13U | a << ((uint32_t)32U - (uint32_t)13U))
    a880:	0d 46       	mov	r6,	r13	
    a882:	0d 5d       	rla	r13		
    a884:	0d 5d       	rla	r13		
    a886:	0d 5d       	rla	r13		
    a888:	0f 47       	mov	r7,	r15	
    a88a:	8f 10       	swpb	r15		
    a88c:	4f 4f       	mov.b	r15,	r15	
    a88e:	12 c3       	clrc			
    a890:	0f 10       	rrc	r15		
    a892:	12 c3       	clrc			
    a894:	0f 10       	rrc	r15		
    a896:	12 c3       	clrc			
    a898:	0f 10       	rrc	r15		
    a89a:	12 c3       	clrc			
    a89c:	0f 10       	rrc	r15		
    a89e:	12 c3       	clrc			
    a8a0:	0f 10       	rrc	r15		
    a8a2:	0d df       	bis	r15,	r13	
    a8a4:	81 4d 88 00 	mov	r13,	136(r1)	;0x0088(r1)
    a8a8:	0d 47       	mov	r7,	r13	
    a8aa:	0d 5d       	rla	r13		
    a8ac:	0d 5d       	rla	r13		
    a8ae:	0d 5d       	rla	r13		
    a8b0:	0f 46       	mov	r6,	r15	
    a8b2:	8f 10       	swpb	r15		
    a8b4:	4f 4f       	mov.b	r15,	r15	
    a8b6:	12 c3       	clrc			
    a8b8:	0f 10       	rrc	r15		
    a8ba:	12 c3       	clrc			
    a8bc:	0f 10       	rrc	r15		
    a8be:	12 c3       	clrc			
    a8c0:	0f 10       	rrc	r15		
    a8c2:	12 c3       	clrc			
    a8c4:	0f 10       	rrc	r15		
    a8c6:	12 c3       	clrc			
    a8c8:	0f 10       	rrc	r15		
    a8ca:	0d df       	bis	r15,	r13	
    a8cc:	81 4d 86 00 	mov	r13,	134(r1)	;0x0086(r1)
      + ((e & f1) ^ (~e & g))
      + kt
      + wst;
    uint32_t
    t2 =
      ((a >> (uint32_t)2U | a << ((uint32_t)32U - (uint32_t)2U))
    a8d0:	4d 46       	mov.b	r6,	r13	
    a8d2:	8d 10       	swpb	r13		
    a8d4:	0d 5d       	rla	r13		
    a8d6:	0d 5d       	rla	r13		
    a8d8:	0d 5d       	rla	r13		
    a8da:	0d 5d       	rla	r13		
    a8dc:	0d 5d       	rla	r13		
    a8de:	0d 5d       	rla	r13		
    a8e0:	0f 47       	mov	r7,	r15	
    a8e2:	12 c3       	clrc			
    a8e4:	0f 10       	rrc	r15		
    a8e6:	12 c3       	clrc			
    a8e8:	0f 10       	rrc	r15		
    a8ea:	0d df       	bis	r15,	r13	
    a8ec:	81 4d 8c 00 	mov	r13,	140(r1)	;0x008c(r1)
    a8f0:	4d 47       	mov.b	r7,	r13	
    a8f2:	8d 10       	swpb	r13		
    a8f4:	0d 5d       	rla	r13		
    a8f6:	0d 5d       	rla	r13		
    a8f8:	0d 5d       	rla	r13		
    a8fa:	0d 5d       	rla	r13		
    a8fc:	0d 5d       	rla	r13		
    a8fe:	0d 5d       	rla	r13		
    a900:	0f 46       	mov	r6,	r15	
    a902:	12 c3       	clrc			
    a904:	0f 10       	rrc	r15		
    a906:	12 c3       	clrc			
    a908:	0f 10       	rrc	r15		
    a90a:	0d df       	bis	r15,	r13	
    a90c:	81 4d 8a 00 	mov	r13,	138(r1)	;0x008a(r1)
      ^
        ((a >> (uint32_t)13U | a << ((uint32_t)32U - (uint32_t)13U))
        ^ (a >> (uint32_t)22U | a << ((uint32_t)32U - (uint32_t)22U))))
    a910:	14 41 86 00 	mov	134(r1),r4	;0x0086(r1)
    a914:	15 41 88 00 	mov	136(r1),r5	;0x0088(r1)
    a918:	14 e1 8a 00 	xor	138(r1),r4	;0x008a(r1)
    a91c:	15 e1 8c 00 	xor	140(r1),r5	;0x008c(r1)
    a920:	0d 4f       	mov	r15,	r13	
    a922:	12 c3       	clrc			
    a924:	0d 10       	rrc	r13		
    a926:	12 c3       	clrc			
    a928:	0d 10       	rrc	r13		
    a92a:	12 c3       	clrc			
    a92c:	0d 10       	rrc	r13		
    a92e:	12 c3       	clrc			
    a930:	0d 10       	rrc	r13		
    a932:	4f 47       	mov.b	r7,	r15	
    a934:	8f 10       	swpb	r15		
    a936:	0f 5f       	rla	r15		
    a938:	0f 5f       	rla	r15		
    a93a:	0d df       	bis	r15,	r13	
    a93c:	81 4d 90 00 	mov	r13,	144(r1)	;0x0090(r1)
    a940:	0d 47       	mov	r7,	r13	
    a942:	12 c3       	clrc			
    a944:	0d 10       	rrc	r13		
    a946:	12 c3       	clrc			
    a948:	0d 10       	rrc	r13		
    a94a:	12 c3       	clrc			
    a94c:	0d 10       	rrc	r13		
    a94e:	12 c3       	clrc			
    a950:	0d 10       	rrc	r13		
    a952:	12 c3       	clrc			
    a954:	0d 10       	rrc	r13		
    a956:	12 c3       	clrc			
    a958:	0d 10       	rrc	r13		
    a95a:	4f 46       	mov.b	r6,	r15	
    a95c:	8f 10       	swpb	r15		
    a95e:	0f 5f       	rla	r15		
    a960:	0f 5f       	rla	r15		
    a962:	0d df       	bis	r15,	r13	
    a964:	81 4d 8e 00 	mov	r13,	142(r1)	;0x008e(r1)
      + kt
      + wst;
    uint32_t
    t2 =
      ((a >> (uint32_t)2U | a << ((uint32_t)32U - (uint32_t)2U))
      ^
    a968:	1c 41 8e 00 	mov	142(r1),r12	;0x008e(r1)
    a96c:	1d 41 90 00 	mov	144(r1),r13	;0x0090(r1)
    a970:	0c e4       	xor	r4,	r12	
    a972:	0d e5       	xor	r5,	r13	
          ^ (e >> (uint32_t)25U | e << ((uint32_t)32U - (uint32_t)25U))))
      + ((e & f1) ^ (~e & g))
      + kt
      + wst;
    uint32_t
    t2 =
    a974:	0e 4a       	mov	r10,	r14	
    a976:	0f 4b       	mov	r11,	r15	
    a978:	0e 5c       	add	r12,	r14	
    a97a:	0f 6d       	addc	r13,	r15	
      ((a >> (uint32_t)2U | a << ((uint32_t)32U - (uint32_t)2U))
      ^
        ((a >> (uint32_t)13U | a << ((uint32_t)32U - (uint32_t)13U))
        ^ (a >> (uint32_t)22U | a << ((uint32_t)32U - (uint32_t)22U))))
      + ((a & b) ^ ((a & c) ^ (b & c)));
    uint32_t x1 = t1 + t2;
    a97c:	1a 41 76 00 	mov	118(r1),r10	;0x0076(r1)
    a980:	1b 41 78 00 	mov	120(r1),r11	;0x0078(r1)
    a984:	0a 5e       	add	r14,	r10	
    a986:	0b 6f       	addc	r15,	r11	
    a988:	81 4a 40 00 	mov	r10,	64(r1)	;0x0040(r1)
    a98c:	81 4b 42 00 	mov	r11,	66(r1)	;0x0042(r1)
    uint32_t x5 = d + t1;
    uint32_t *p1 = hash_0;
    uint32_t *p2 = hash_0 + (uint32_t)4U;
    p1[0U] = x1;
    p1[1U] = a;
    a990:	81 46 44 00 	mov	r6,	68(r1)	;0x0044(r1)
    a994:	81 47 46 00 	mov	r7,	70(r1)	;0x0046(r1)
    p1[2U] = b;
    a998:	91 41 64 00 	mov	100(r1),72(r1)	;0x0064(r1), 0x0048(r1)
    a99c:	48 00 
    a99e:	91 41 66 00 	mov	102(r1),74(r1)	;0x0066(r1), 0x004a(r1)
    a9a2:	4a 00 
    p1[3U] = c;
    a9a4:	91 41 68 00 	mov	104(r1),76(r1)	;0x0068(r1), 0x004c(r1)
    a9a8:	4c 00 
    a9aa:	91 41 6a 00 	mov	106(r1),78(r1)	;0x006a(r1), 0x004e(r1)
    a9ae:	4e 00 
    p2[0U] = x5;
    p2[1U] = e;
    a9b0:	81 48 54 00 	mov	r8,	84(r1)	;0x0054(r1)
    a9b4:	81 49 56 00 	mov	r9,	86(r1)	;0x0056(r1)
    p2[2U] = f1;
    a9b8:	91 41 6e 00 	mov	110(r1),88(r1)	;0x006e(r1), 0x0058(r1)
    a9bc:	58 00 
    a9be:	91 41 70 00 	mov	112(r1),90(r1)	;0x0070(r1), 0x005a(r1)
    a9c2:	5a 00 
    p2[3U] = g;
    a9c4:	91 41 72 00 	mov	114(r1),92(r1)	;0x0072(r1), 0x005c(r1)
    a9c8:	5c 00 
    a9ca:	91 41 74 00 	mov	116(r1),94(r1)	;0x0074(r1), 0x005e(r1)
    a9ce:	5e 00 
    a9d0:	a1 52 6c 00 	add	#4,	108(r1)	;r2 As==10, 0x006c(r1)
          ^ ((t15 >> (uint32_t)18U | t15 << ((uint32_t)32U - (uint32_t)18U)) ^ t15 >> (uint32_t)3U))
          + t16;
  }
  uint32_t hash_0[8U] = { 0U };
  memcpy(hash_0, hash_w, (uint32_t)8U * sizeof hash_w[0U]);
  for (uint32_t i = (uint32_t)0U; i < (uint32_t)64U; i = i + (uint32_t)1U)
    a9d4:	91 91 96 00 	cmp	150(r1),108(r1)	;0x0096(r1), 0x006c(r1)
    a9d8:	6c 00 
    a9da:	02 24       	jz	$+6      	;abs 0xa9e0
    a9dc:	30 40 c2 a6 	br	#0xa6c2	
    a9e0:	91 41 92 00 	mov	146(r1),80(r1)	;0x0092(r1), 0x0050(r1)
    a9e4:	50 00 
    a9e6:	91 41 94 00 	mov	148(r1),82(r1)	;0x0094(r1), 0x0052(r1)
    a9ea:	52 00 
    a9ec:	1e 41 9a 00 	mov	154(r1),r14	;0x009a(r1)
    a9f0:	0d 41       	mov	r1,	r13	
    a9f2:	3d 50 40 00 	add	#64,	r13	;#0x0040
  p2[1U] = (uint32_t)0x9b05688cU;
  p2[2U] = (uint32_t)0x1f83d9abU;
  p2[3U] = (uint32_t)0x5be0cd19U;
}

static void Hacl_Impl_SHA2_256_update(uint32_t *state, uint8_t *data)
    a9f6:	1c 41 98 00 	mov	152(r1),r12	;0x0098(r1)
    a9fa:	3c 50 20 02 	add	#544,	r12	;#0x0220
  }
  for (uint32_t i = (uint32_t)0U; i < (uint32_t)8U; i = i + (uint32_t)1U)
  {
    uint32_t xi = hash_w[i];
    uint32_t yi = hash_0[i];
    hash_w[i] = xi + yi;
    a9fe:	be 5d 00 00 	add	@r13+,	0(r14)	;0x0000(r14)
    aa02:	be 6d 02 00 	addc	@r13+,	2(r14)	;0x0002(r14)
    aa06:	2e 52       	add	#4,	r14	;r2 As==10
    p2[0U] = x5;
    p2[1U] = e;
    p2[2U] = f1;
    p2[3U] = g;
  }
  for (uint32_t i = (uint32_t)0U; i < (uint32_t)8U; i = i + (uint32_t)1U)
    aa08:	0e 9c       	cmp	r12,	r14	
    aa0a:	f9 23       	jnz	$-12     	;abs 0xa9fe
    uint32_t yi = hash_0[i];
    hash_w[i] = xi + yi;
  }
  uint32_t c0 = counter_w[0U];
  uint32_t one1 = (uint32_t)1U;
  counter_w[0U] = c0 + one1;
    aa0c:	1b 41 98 00 	mov	152(r1),r11	;0x0098(r1)
    aa10:	9b 53 20 02 	inc	544(r11)	;0x0220(r11)
    aa14:	8b 63 22 02 	adc	546(r11)	;0x0222(r11)
}
    aa18:	31 50 9c 00 	add	#156,	r1	;#0x009c
    aa1c:	34 41       	pop	r4		
    aa1e:	35 41       	pop	r5		
    aa20:	36 41       	pop	r6		
    aa22:	37 41       	pop	r7		
    aa24:	38 41       	pop	r8		
    aa26:	39 41       	pop	r9		
    aa28:	3a 41       	pop	r10		
    aa2a:	3b 41       	pop	r11		
    aa2c:	30 41       	ret			

0000aa2e <Hacl_Impl_SHA2_256_update_multi>:

static void Hacl_Impl_SHA2_256_update_multi(uint32_t *state, uint8_t *data, uint32_t n1)
{
    aa2e:	0b 12       	push	r11		
    aa30:	0a 12       	push	r10		
    aa32:	09 12       	push	r9		
    aa34:	08 12       	push	r8		
    aa36:	07 12       	push	r7		
    aa38:	06 12       	push	r6		
    aa3a:	07 4f       	mov	r15,	r7	
    aa3c:	08 4c       	mov	r12,	r8	
    aa3e:	06 4d       	mov	r13,	r6	
  for (uint32_t i = (uint32_t)0U; i < n1; i = i + (uint32_t)1U)
    aa40:	0c 93       	tst	r12		
    aa42:	02 20       	jnz	$+6      	;abs 0xaa48
    aa44:	0d 93       	tst	r13		
    aa46:	0f 24       	jz	$+32     	;abs 0xaa66
    aa48:	09 4e       	mov	r14,	r9	
    aa4a:	0a 43       	clr	r10		
    aa4c:	0b 43       	clr	r11		
  {
    uint8_t *b = data + i * (uint32_t)64U;
    Hacl_Impl_SHA2_256_update(state, b);
    aa4e:	0e 49       	mov	r9,	r14	
    aa50:	0f 47       	mov	r7,	r15	
    aa52:	b0 12 fa a3 	call	#0xa3fa	
  counter_w[0U] = c0 + one1;
}

static void Hacl_Impl_SHA2_256_update_multi(uint32_t *state, uint8_t *data, uint32_t n1)
{
  for (uint32_t i = (uint32_t)0U; i < n1; i = i + (uint32_t)1U)
    aa56:	1a 53       	inc	r10		
    aa58:	0b 63       	adc	r11		
    aa5a:	39 50 40 00 	add	#64,	r9	;#0x0040
    aa5e:	0a 98       	cmp	r8,	r10	
    aa60:	f6 23       	jnz	$-18     	;abs 0xaa4e
    aa62:	0b 96       	cmp	r6,	r11	
    aa64:	f4 23       	jnz	$-22     	;abs 0xaa4e
  {
    uint8_t *b = data + i * (uint32_t)64U;
    Hacl_Impl_SHA2_256_update(state, b);
  }
}
    aa66:	36 41       	pop	r6		
    aa68:	37 41       	pop	r7		
    aa6a:	38 41       	pop	r8		
    aa6c:	39 41       	pop	r9		
    aa6e:	3a 41       	pop	r10		
    aa70:	3b 41       	pop	r11		
    aa72:	30 41       	ret			

0000aa74 <Hacl_Impl_SHA2_256_update_last>:

static void Hacl_Impl_SHA2_256_update_last(uint32_t *state, uint8_t *data, uint32_t len)
{
    aa74:	0b 12       	push	r11		
    aa76:	0a 12       	push	r10		
    aa78:	09 12       	push	r9		
    aa7a:	08 12       	push	r8		
    aa7c:	07 12       	push	r7		
    aa7e:	06 12       	push	r6		
    aa80:	05 12       	push	r5		
    aa82:	04 12       	push	r4		
    aa84:	31 50 5e ff 	add	#-162,	r1	;#0xff5e
    aa88:	81 4f 96 00 	mov	r15,	150(r1)	;0x0096(r1)
    aa8c:	0a 4e       	mov	r14,	r10	
    aa8e:	81 4c 90 00 	mov	r12,	144(r1)	;0x0090(r1)
    aa92:	81 4d 92 00 	mov	r13,	146(r1)	;0x0092(r1)
  uint8_t blocks[128U] = { 0U };
    aa96:	3d 40 80 00 	mov	#128,	r13	;#0x0080
    aa9a:	0e 43       	clr	r14		
    aa9c:	0f 41       	mov	r1,	r15	
    aa9e:	b0 12 28 b1 	call	#0xb128	
  uint32_t nb;
  if (len < (uint32_t)56U)
    aaa2:	91 93 92 00 	cmp	#1,	146(r1)	;r3 As==01, 0x0092(r1)
    aaa6:	0e 2c       	jc	$+30     	;abs 0xaac4
    aaa8:	b1 90 38 00 	cmp	#56,	144(r1)	;#0x0038, 0x0090(r1)
    aaac:	90 00 
    aaae:	0a 2c       	jc	$+22     	;abs 0xaac4
    nb = (uint32_t)1U;
    aab0:	91 43 9c 00 	mov	#1,	156(r1)	;r3 As==01, 0x009c(r1)
    aab4:	81 43 9e 00 	mov	#0,	158(r1)	;r3 As==00, 0x009e(r1)
  else
    nb = (uint32_t)2U;
  uint8_t *final_blocks;
  if (len < (uint32_t)56U)
    final_blocks = blocks + (uint32_t)64U;
    aab8:	08 41       	mov	r1,	r8	
    aaba:	38 50 40 00 	add	#64,	r8	;#0x0040
    aabe:	81 48 94 00 	mov	r8,	148(r1)	;0x0094(r1)
    aac2:	06 3c       	jmp	$+14     	;abs 0xaad0
  uint8_t blocks[128U] = { 0U };
  uint32_t nb;
  if (len < (uint32_t)56U)
    nb = (uint32_t)1U;
  else
    nb = (uint32_t)2U;
    aac4:	a1 43 9c 00 	mov	#2,	156(r1)	;r3 As==10, 0x009c(r1)
    aac8:	81 43 9e 00 	mov	#0,	158(r1)	;r3 As==00, 0x009e(r1)
  uint8_t *final_blocks;
  if (len < (uint32_t)56U)
    final_blocks = blocks + (uint32_t)64U;
  else
    final_blocks = blocks;
    aacc:	81 41 94 00 	mov	r1,	148(r1)	;0x0094(r1)
  memcpy(final_blocks, data, len * sizeof data[0U]);
    aad0:	1d 41 90 00 	mov	144(r1),r13	;0x0090(r1)
    aad4:	0e 4a       	mov	r10,	r14	
    aad6:	1f 41 94 00 	mov	148(r1),r15	;0x0094(r1)
    aada:	b0 12 2e b0 	call	#0xb02e	
  uint32_t n1 = state[136U];
  uint8_t *padding = final_blocks + len;
    aade:	19 41 94 00 	mov	148(r1),r9	;0x0094(r1)
    aae2:	19 51 90 00 	add	144(r1),r9	;0x0090(r1)
    aae6:	81 49 9a 00 	mov	r9,	154(r1)	;0x009a(r1)
  uint32_t
  pad0len = ((uint32_t)64U - (len + (uint32_t)8U + (uint32_t)1U) % (uint32_t)64U) % (uint32_t)64U;
  uint8_t *buf1 = padding;
  uint8_t *buf2 = padding + (uint32_t)1U + pad0len;
  uint64_t
  encodedlen = ((uint64_t)n1 * (uint64_t)(uint32_t)64U + (uint64_t)len) * (uint64_t)(uint32_t)8U;
    aaea:	14 41 90 00 	mov	144(r1),r4	;0x0090(r1)
    aaee:	15 41 92 00 	mov	146(r1),r5	;0x0092(r1)
    aaf2:	06 43       	clr	r6		
    aaf4:	07 43       	clr	r7		
    aaf6:	1b 41 96 00 	mov	150(r1),r11	;0x0096(r1)
    aafa:	1f 4b 20 02 	mov	544(r11),r15	;0x0220(r11)
    aafe:	1d 4b 22 02 	mov	546(r11),r13	;0x0222(r11)
    ab02:	08 4f       	mov	r15,	r8	
    ab04:	09 4d       	mov	r13,	r9	
    ab06:	0a 43       	clr	r10		
    ab08:	0b 43       	clr	r11		
    ab0a:	08 58       	rla	r8		
    ab0c:	09 69       	rlc	r9		
    ab0e:	0a 6a       	rlc	r10		
    ab10:	0b 6b       	rlc	r11		
    ab12:	08 58       	rla	r8		
    ab14:	09 69       	rlc	r9		
    ab16:	0a 6a       	rlc	r10		
    ab18:	0b 6b       	rlc	r11		
    ab1a:	08 58       	rla	r8		
    ab1c:	09 69       	rlc	r9		
    ab1e:	0a 6a       	rlc	r10		
    ab20:	0b 6b       	rlc	r11		
    ab22:	08 58       	rla	r8		
    ab24:	09 69       	rlc	r9		
    ab26:	0a 6a       	rlc	r10		
    ab28:	0b 6b       	rlc	r11		
    ab2a:	08 58       	rla	r8		
    ab2c:	09 69       	rlc	r9		
    ab2e:	0a 6a       	rlc	r10		
    ab30:	0b 6b       	rlc	r11		
    ab32:	08 58       	rla	r8		
    ab34:	09 69       	rlc	r9		
    ab36:	0a 6a       	rlc	r10		
    ab38:	0b 6b       	rlc	r11		
    ab3a:	0c 44       	mov	r4,	r12	
    ab3c:	0d 45       	mov	r5,	r13	
    ab3e:	0e 46       	mov	r6,	r14	
    ab40:	0f 47       	mov	r7,	r15	
    ab42:	0c 58       	add	r8,	r12	
    ab44:	0d 69       	addc	r9,	r13	
    ab46:	0e 6a       	addc	r10,	r14	
    ab48:	0f 6b       	addc	r11,	r15	
    ab4a:	0c 5c       	rla	r12		
    ab4c:	0d 6d       	rlc	r13		
    ab4e:	0e 6e       	rlc	r14		
    ab50:	0f 6f       	rlc	r15		
    ab52:	0c 5c       	rla	r12		
    ab54:	0d 6d       	rlc	r13		
    ab56:	0e 6e       	rlc	r14		
    ab58:	0f 6f       	rlc	r15		
    ab5a:	0c 5c       	rla	r12		
    ab5c:	0d 6d       	rlc	r13		
    ab5e:	0e 6e       	rlc	r14		
    ab60:	0f 6f       	rlc	r15		
  buf1[0U] = (uint8_t)0x80U;
    ab62:	18 41 9a 00 	mov	154(r1),r8	;0x009a(r1)
    ab66:	f8 40 80 ff 	mov.b	#-128,	0(r8)	;#0xff80, 0x0000(r8)
    ab6a:	00 00 
  store64_be(buf2, encodedlen);
    ab6c:	81 4c a0 00 	mov	r12,	160(r1)	;0x00a0(r1)
    ab70:	81 4d 98 00 	mov	r13,	152(r1)	;0x0098(r1)
    ab74:	48 4e       	mov.b	r14,	r8	
    ab76:	06 43       	clr	r6		
    ab78:	07 43       	clr	r7		
    ab7a:	07 48       	mov	r8,	r7	
    ab7c:	87 10       	swpb	r7		
    ab7e:	04 4f       	mov	r15,	r4	
    ab80:	84 10       	swpb	r4		
    ab82:	4a 44       	mov.b	r4,	r10	
    ab84:	0b 43       	clr	r11		
    ab86:	0a d6       	bis	r6,	r10	
    ab88:	0b d7       	bis	r7,	r11	
    ab8a:	04 4e       	mov	r14,	r4	
    ab8c:	05 4f       	mov	r15,	r5	
    ab8e:	84 10       	swpb	r4		
    ab90:	85 10       	swpb	r5		
    ab92:	44 e5       	xor.b	r5,	r4	
    ab94:	04 e5       	xor	r5,	r4	
    ab96:	45 45       	mov.b	r5,	r5	
    ab98:	06 44       	mov	r4,	r6	
    ab9a:	07 45       	mov	r5,	r7	
    ab9c:	36 f0 00 ff 	and	#-256,	r6	;#0xff00
    aba0:	07 f3       	and	#0,	r7	;r3 As==00
    aba2:	06 da       	bis	r10,	r6	
    aba4:	07 db       	bis	r11,	r7	
    aba6:	0b 4f       	mov	r15,	r11	
    aba8:	4b ee       	xor.b	r14,	r11	
    abaa:	0b ee       	xor	r14,	r11	
    abac:	8b 10       	swpb	r11		
    abae:	4a 4e       	mov.b	r14,	r10	
    abb0:	8a 10       	swpb	r10		
    abb2:	0a f3       	and	#0,	r10	;r3 As==00
    abb4:	3b f0 ff 00 	and	#255,	r11	;#0x00ff
    abb8:	08 46       	mov	r6,	r8	
    abba:	09 47       	mov	r7,	r9	
    abbc:	08 da       	bis	r10,	r8	
    abbe:	09 db       	bis	r11,	r9	
    abc0:	81 48 88 00 	mov	r8,	136(r1)	;0x0088(r1)
    abc4:	81 49 8a 00 	mov	r9,	138(r1)	;0x008a(r1)
    abc8:	81 43 8c 00 	mov	#0,	140(r1)	;r3 As==00, 0x008c(r1)
    abcc:	81 43 8e 00 	mov	#0,	142(r1)	;r3 As==00, 0x008e(r1)
    abd0:	58 41 a0 00 	mov.b	160(r1),r8	;0x00a0(r1)
    abd4:	06 43       	clr	r6		
    abd6:	07 43       	clr	r7		
    abd8:	07 48       	mov	r8,	r7	
    abda:	87 10       	swpb	r7		
    abdc:	08 4d       	mov	r13,	r8	
    abde:	88 10       	swpb	r8		
    abe0:	4a 48       	mov.b	r8,	r10	
    abe2:	0b 43       	clr	r11		
    abe4:	0a d6       	bis	r6,	r10	
    abe6:	0b d7       	bis	r7,	r11	
    abe8:	04 4c       	mov	r12,	r4	
    abea:	05 4d       	mov	r13,	r5	
    abec:	84 10       	swpb	r4		
    abee:	85 10       	swpb	r5		
    abf0:	44 e5       	xor.b	r5,	r4	
    abf2:	04 e5       	xor	r5,	r4	
    abf4:	45 45       	mov.b	r5,	r5	
    abf6:	06 44       	mov	r4,	r6	
    abf8:	07 45       	mov	r5,	r7	
    abfa:	36 f0 00 ff 	and	#-256,	r6	;#0xff00
    abfe:	07 f3       	and	#0,	r7	;r3 As==00
    ac00:	06 da       	bis	r10,	r6	
    ac02:	07 db       	bis	r11,	r7	
    ac04:	0b 4d       	mov	r13,	r11	
    ac06:	4b ec       	xor.b	r12,	r11	
    ac08:	0b ec       	xor	r12,	r11	
    ac0a:	8b 10       	swpb	r11		
    ac0c:	4a 4c       	mov.b	r12,	r10	
    ac0e:	8a 10       	swpb	r10		
    ac10:	08 4a       	mov	r10,	r8	
    ac12:	09 4b       	mov	r11,	r9	
    ac14:	08 f3       	and	#0,	r8	;r3 As==00
    ac16:	39 f0 ff 00 	and	#255,	r9	;#0x00ff
    ac1a:	06 d8       	bis	r8,	r6	
    ac1c:	07 d9       	bis	r9,	r7	
    ac1e:	08 43       	clr	r8		
    ac20:	09 43       	clr	r9		
    ac22:	0a 43       	clr	r10		
    ac24:	0b 43       	clr	r11		
    ac26:	09 43       	clr	r9		
    ac28:	0a 46       	mov	r6,	r10	
    ac2a:	0b 47       	mov	r7,	r11	
    ac2c:	1c 41 88 00 	mov	136(r1),r12	;0x0088(r1)
    ac30:	1d 41 8a 00 	mov	138(r1),r13	;0x008a(r1)
    ac34:	1e 41 8c 00 	mov	140(r1),r14	;0x008c(r1)
    ac38:	1f 41 8e 00 	mov	142(r1),r15	;0x008e(r1)
    ac3c:	0c d8       	bis	r8,	r12	
    ac3e:	0d d9       	bis	r9,	r13	
    ac40:	0e da       	bis	r10,	r14	
    ac42:	0f db       	bis	r11,	r15	
    ac44:	81 4c 80 00 	mov	r12,	128(r1)	;0x0080(r1)
    ac48:	81 4d 82 00 	mov	r13,	130(r1)	;0x0082(r1)
    ac4c:	81 4e 84 00 	mov	r14,	132(r1)	;0x0084(r1)
    ac50:	81 4f 86 00 	mov	r15,	134(r1)	;0x0086(r1)
    final_blocks = blocks;
  memcpy(final_blocks, data, len * sizeof data[0U]);
  uint32_t n1 = state[136U];
  uint8_t *padding = final_blocks + len;
  uint32_t
  pad0len = ((uint32_t)64U - (len + (uint32_t)8U + (uint32_t)1U) % (uint32_t)64U) % (uint32_t)64U;
    ac54:	3a 40 f7 ff 	mov	#-9,	r10	;#0xfff7
    ac58:	3b 43       	mov	#-1,	r11	;r3 As==11
    ac5a:	1a 81 90 00 	sub	144(r1),r10	;0x0090(r1)
    ac5e:	1b 71 92 00 	subc	146(r1),r11	;0x0092(r1)
    ac62:	3a f0 3f 00 	and	#63,	r10	;#0x003f
    ac66:	0b f3       	and	#0,	r11	;r3 As==00
  uint8_t *buf1 = padding;
  uint8_t *buf2 = padding + (uint32_t)1U + pad0len;
    ac68:	1a 53       	inc	r10		
    ac6a:	1d 41 9a 00 	mov	154(r1),r13	;0x009a(r1)
    ac6e:	0d 5a       	add	r10,	r13	

inline static void store16(uint8_t *b, uint16_t i) { memcpy(b, &i, 2); }

inline static void store32(uint8_t *b, uint32_t i) { memcpy(b, &i, 4); }

inline static void store64(uint8_t *b, uint64_t i) { memcpy(b, &i, 8); }
    ac70:	dd 41 80 00 	mov.b	128(r1),0(r13)	;0x0080(r1), 0x0000(r13)
    ac74:	00 00 
    ac76:	1d 53       	inc	r13		
    ac78:	dd 41 81 00 	mov.b	129(r1),0(r13)	;0x0081(r1), 0x0000(r13)
    ac7c:	00 00 
    ac7e:	1d 53       	inc	r13		
    ac80:	dd 41 82 00 	mov.b	130(r1),0(r13)	;0x0082(r1), 0x0000(r13)
    ac84:	00 00 
    ac86:	1d 53       	inc	r13		
    ac88:	dd 41 83 00 	mov.b	131(r1),0(r13)	;0x0083(r1), 0x0000(r13)
    ac8c:	00 00 
    ac8e:	1d 53       	inc	r13		
    ac90:	dd 41 84 00 	mov.b	132(r1),0(r13)	;0x0084(r1), 0x0000(r13)
    ac94:	00 00 
    ac96:	1d 53       	inc	r13		
    ac98:	dd 41 85 00 	mov.b	133(r1),0(r13)	;0x0085(r1), 0x0000(r13)
    ac9c:	00 00 
    ac9e:	1d 53       	inc	r13		
    aca0:	dd 41 86 00 	mov.b	134(r1),0(r13)	;0x0086(r1), 0x0000(r13)
    aca4:	00 00 
    aca6:	dd 41 87 00 	mov.b	135(r1),1(r13)	;0x0087(r1), 0x0001(r13)
    acaa:	01 00 
  uint64_t
  encodedlen = ((uint64_t)n1 * (uint64_t)(uint32_t)64U + (uint64_t)len) * (uint64_t)(uint32_t)8U;
  buf1[0U] = (uint8_t)0x80U;
  store64_be(buf2, encodedlen);
  Hacl_Impl_SHA2_256_update_multi(state, final_blocks, nb);
    acac:	1c 41 9c 00 	mov	156(r1),r12	;0x009c(r1)
    acb0:	1d 41 9e 00 	mov	158(r1),r13	;0x009e(r1)
    acb4:	1e 41 94 00 	mov	148(r1),r14	;0x0094(r1)
    acb8:	1f 41 96 00 	mov	150(r1),r15	;0x0096(r1)
    acbc:	b0 12 2e aa 	call	#0xaa2e	
}
    acc0:	31 50 a2 00 	add	#162,	r1	;#0x00a2
    acc4:	34 41       	pop	r4		
    acc6:	35 41       	pop	r5		
    acc8:	36 41       	pop	r6		
    acca:	37 41       	pop	r7		
    accc:	38 41       	pop	r8		
    acce:	39 41       	pop	r9		
    acd0:	3a 41       	pop	r10		
    acd2:	3b 41       	pop	r11		
    acd4:	30 41       	ret			

0000acd6 <Hacl_Impl_SHA2_256_finish>:

static void Hacl_Impl_SHA2_256_finish(uint32_t *state, uint8_t *hash1)
{
    acd6:	0b 12       	push	r11		
    acd8:	0a 12       	push	r10		
    acda:	09 12       	push	r9		
    acdc:	08 12       	push	r8		
    acde:	07 12       	push	r7		
    ace0:	06 12       	push	r6		
    ace2:	05 12       	push	r5		
    ace4:	04 12       	push	r4		
    ace6:	31 50 f0 ff 	add	#-16,	r1	;#0xfff0
  uint32_t *hash_w = state + (uint32_t)128U;
    acea:	06 4f       	mov	r15,	r6	
    acec:	36 50 00 02 	add	#512,	r6	;#0x0200
  buf1[0U] = (uint8_t)0x80U;
  store64_be(buf2, encodedlen);
  Hacl_Impl_SHA2_256_update_multi(state, final_blocks, nb);
}

static void Hacl_Impl_SHA2_256_finish(uint32_t *state, uint8_t *hash1)
    acf0:	0d 4f       	mov	r15,	r13	
    acf2:	3d 50 20 02 	add	#544,	r13	;#0x0220
    acf6:	81 4d 08 00 	mov	r13,	8(r1)	;0x0008(r1)
    acfa:	0e 8f       	sub	r15,	r14	
    acfc:	3e 50 00 fe 	add	#-512,	r14	;#0xfe00
    ad00:	81 4e 0a 00 	mov	r14,	10(r1)	;0x000a(r1)
  return x;
}

inline static void store16(uint8_t *b, uint16_t i) { memcpy(b, &i, 2); }

inline static void store32(uint8_t *b, uint32_t i) { memcpy(b, &i, 4); }
    ad04:	1e 43       	mov	#1,	r14	;r3 As==01
    ad06:	0e 51       	add	r1,	r14	
    ad08:	1e 53       	inc	r14		
    ad0a:	0f 4e       	mov	r14,	r15	
    ad0c:	1f 53       	inc	r15		
    ad0e:	81 4f 0c 00 	mov	r15,	12(r1)	;0x000c(r1)
    ad12:	81 4e 0e 00 	mov	r14,	14(r1)	;0x000e(r1)
static void
Hacl_Hash_Lib_LoadStore_uint32s_to_be_bytes(uint8_t *output, uint32_t *input, uint32_t len)
{
  for (uint32_t i = (uint32_t)0U; i < len; i = i + (uint32_t)1U)
  {
    uint32_t hd1 = input[i];
    ad16:	2e 46       	mov	@r6,	r14	
    ad18:	17 46 02 00 	mov	2(r6),	r7	;0x0002(r6)
    uint8_t *x0 = output + (uint32_t)4U * i;
    store32_be(x0, hd1);
    ad1c:	4f 4e       	mov.b	r14,	r15	
    ad1e:	81 43 04 00 	mov	#0,	4(r1)	;r3 As==00, 0x0004(r1)
    ad22:	8f 10       	swpb	r15		
    ad24:	81 4f 06 00 	mov	r15,	6(r1)	;0x0006(r1)
    ad28:	0f 47       	mov	r7,	r15	
    ad2a:	8f 10       	swpb	r15		
    ad2c:	44 4f       	mov.b	r15,	r4	
    ad2e:	05 43       	clr	r5		
    ad30:	18 41 04 00 	mov	4(r1),	r8	;0x0004(r1)
    ad34:	19 41 06 00 	mov	6(r1),	r9	;0x0006(r1)
    ad38:	08 d4       	bis	r4,	r8	
    ad3a:	09 d5       	bis	r5,	r9	
    ad3c:	0c 4e       	mov	r14,	r12	
    ad3e:	0d 47       	mov	r7,	r13	
    ad40:	8c 10       	swpb	r12		
    ad42:	8d 10       	swpb	r13		
    ad44:	4c ed       	xor.b	r13,	r12	
    ad46:	0c ed       	xor	r13,	r12	
    ad48:	4d 4d       	mov.b	r13,	r13	
    ad4a:	3c f0 00 ff 	and	#-256,	r12	;#0xff00
    ad4e:	0d f3       	and	#0,	r13	;r3 As==00
    ad50:	08 dc       	bis	r12,	r8	
    ad52:	09 dd       	bis	r13,	r9	
    ad54:	0b 47       	mov	r7,	r11	
    ad56:	4b ee       	xor.b	r14,	r11	
    ad58:	0b ee       	xor	r14,	r11	
    ad5a:	8b 10       	swpb	r11		
    ad5c:	4a 4e       	mov.b	r14,	r10	
    ad5e:	8a 10       	swpb	r10		
    ad60:	0c 4a       	mov	r10,	r12	
    ad62:	0d 4b       	mov	r11,	r13	
    ad64:	0c f3       	and	#0,	r12	;r3 As==00
    ad66:	3d f0 ff 00 	and	#255,	r13	;#0x00ff
    ad6a:	0e 48       	mov	r8,	r14	
    ad6c:	0f 49       	mov	r9,	r15	
    ad6e:	0e dc       	bis	r12,	r14	
    ad70:	0f dd       	bis	r13,	r15	
    ad72:	81 4e 00 00 	mov	r14,	0(r1)	;0x0000(r1)
    ad76:	81 4f 02 00 	mov	r15,	2(r1)	;0x0002(r1)
  buf1[0U] = (uint8_t)0x80U;
  store64_be(buf2, encodedlen);
  Hacl_Impl_SHA2_256_update_multi(state, final_blocks, nb);
}

static void Hacl_Impl_SHA2_256_finish(uint32_t *state, uint8_t *hash1)
    ad7a:	1f 41 0a 00 	mov	10(r1),	r15	;0x000a(r1)
    ad7e:	0f 56       	add	r6,	r15	
    ad80:	ef 41 00 00 	mov.b	@r1,	0(r15)	;0x0000(r15)
    ad84:	1f 53       	inc	r15		
    ad86:	df 41 01 00 	mov.b	1(r1),	0(r15)	;0x0001(r1), 0x0000(r15)
    ad8a:	00 00 
    ad8c:	1f 53       	inc	r15		
    ad8e:	1d 41 0e 00 	mov	14(r1),	r13	;0x000e(r1)
    ad92:	ef 4d 00 00 	mov.b	@r13,	0(r15)	;0x0000(r15)
    ad96:	1e 41 0c 00 	mov	12(r1),	r14	;0x000c(r1)
    ad9a:	ef 4e 01 00 	mov.b	@r14,	1(r15)	;0x0001(r15)
    ad9e:	26 52       	add	#4,	r6	;r2 As==10
}

static void
Hacl_Hash_Lib_LoadStore_uint32s_to_be_bytes(uint8_t *output, uint32_t *input, uint32_t len)
{
  for (uint32_t i = (uint32_t)0U; i < len; i = i + (uint32_t)1U)
    ada0:	16 91 08 00 	cmp	8(r1),	r6	;0x0008(r1)
    ada4:	b8 23       	jnz	$-142    	;abs 0xad16

static void Hacl_Impl_SHA2_256_finish(uint32_t *state, uint8_t *hash1)
{
  uint32_t *hash_w = state + (uint32_t)128U;
  Hacl_Hash_Lib_LoadStore_uint32s_to_be_bytes(hash1, hash_w, (uint32_t)8U);
}
    ada6:	31 50 10 00 	add	#16,	r1	;#0x0010
    adaa:	34 41       	pop	r4		
    adac:	35 41       	pop	r5		
    adae:	36 41       	pop	r6		
    adb0:	37 41       	pop	r7		
    adb2:	38 41       	pop	r8		
    adb4:	39 41       	pop	r9		
    adb6:	3a 41       	pop	r10		
    adb8:	3b 41       	pop	r11		
    adba:	30 41       	ret			

0000adbc <Hacl_Impl_HMAC_SHA2_256_hmac_core>:
  }
}

static void
Hacl_Impl_HMAC_SHA2_256_hmac_core(uint8_t *mac, uint8_t *key, uint8_t *data, uint32_t len)
{
    adbc:	0b 12       	push	r11		
    adbe:	0a 12       	push	r10		
    adc0:	09 12       	push	r9		
    adc2:	08 12       	push	r8		
    adc4:	07 12       	push	r7		
    adc6:	06 12       	push	r6		
    adc8:	05 12       	push	r5		
    adca:	04 12       	push	r4		
    adcc:	31 50 38 fb 	add	#-1224,	r1	;#0xfb38
    add0:	04 4f       	mov	r15,	r4	
    add2:	08 4e       	mov	r14,	r8	
    add4:	05 4d       	mov	r13,	r5	
    add6:	16 41 da 04 	mov	1242(r1),r6	;0x04da(r1)
    adda:	17 41 dc 04 	mov	1244(r1),r7	;0x04dc(r1)
    adde:	0b 41       	mov	r1,	r11	
    a[i] = xi ^ yi;
  }
}

static void
Hacl_Impl_HMAC_SHA2_256_hmac_core(uint8_t *mac, uint8_t *key, uint8_t *data, uint32_t len)
    ade0:	0a 41       	mov	r1,	r10	
    ade2:	3a 50 40 00 	add	#64,	r10	;#0x0040
{
  uint8_t ipad[64U];
  for (uint32_t _i = 0U; _i < (uint32_t)64U; ++_i)
    ipad[_i] = (uint8_t)0x36U;
    ade6:	fb 40 36 00 	mov.b	#54,	0(r11)	;#0x0036, 0x0000(r11)
    adea:	00 00 
    adec:	1b 53       	inc	r11		

static void
Hacl_Impl_HMAC_SHA2_256_hmac_core(uint8_t *mac, uint8_t *key, uint8_t *data, uint32_t len)
{
  uint8_t ipad[64U];
  for (uint32_t _i = 0U; _i < (uint32_t)64U; ++_i)
    adee:	0b 9a       	cmp	r10,	r11	
    adf0:	fa 23       	jnz	$-10     	;abs 0xade6
    adf2:	0b 41       	mov	r1,	r11	
    adf4:	3b 50 40 00 	add	#64,	r11	;#0x0040
    a[i] = xi ^ yi;
  }
}

static void
Hacl_Impl_HMAC_SHA2_256_hmac_core(uint8_t *mac, uint8_t *key, uint8_t *data, uint32_t len)
    adf8:	0a 4b       	mov	r11,	r10	
    adfa:	3a 50 40 00 	add	#64,	r10	;#0x0040
  uint8_t ipad[64U];
  for (uint32_t _i = 0U; _i < (uint32_t)64U; ++_i)
    ipad[_i] = (uint8_t)0x36U;
  uint8_t opad[64U];
  for (uint32_t _i = 0U; _i < (uint32_t)64U; ++_i)
    opad[_i] = (uint8_t)0x5cU;
    adfe:	fb 40 5c 00 	mov.b	#92,	0(r11)	;#0x005c, 0x0000(r11)
    ae02:	00 00 
    ae04:	1b 53       	inc	r11		
{
  uint8_t ipad[64U];
  for (uint32_t _i = 0U; _i < (uint32_t)64U; ++_i)
    ipad[_i] = (uint8_t)0x36U;
  uint8_t opad[64U];
  for (uint32_t _i = 0U; _i < (uint32_t)64U; ++_i)
    ae06:	0b 9a       	cmp	r10,	r11	
    ae08:	fa 23       	jnz	$-10     	;abs 0xadfe
    opad[_i] = (uint8_t)0x5cU;
  Hacl_Impl_HMAC_SHA2_256_xor_bytes_inplace(ipad, key, (uint32_t)64U);
    ae0a:	3c 40 40 00 	mov	#64,	r12	;#0x0040
    ae0e:	0d 43       	clr	r13		
    ae10:	0e 48       	mov	r8,	r14	
    ae12:	0f 41       	mov	r1,	r15	
    ae14:	b0 12 d2 a3 	call	#0xa3d2	
  uint32_t state0[137U] = { 0U };
    ae18:	3d 40 24 02 	mov	#548,	r13	;#0x0224
    ae1c:	0e 43       	clr	r14		
    ae1e:	0f 41       	mov	r1,	r15	
    ae20:	3f 50 80 00 	add	#128,	r15	;#0x0080
    ae24:	b0 12 28 b1 	call	#0xb128	
  uint32_t n0 = len / (uint32_t)64U;
    ae28:	0a 46       	mov	r6,	r10	
    ae2a:	0b 47       	mov	r7,	r11	
    ae2c:	12 c3       	clrc			
    ae2e:	0b 10       	rrc	r11		
    ae30:	0a 10       	rrc	r10		
    ae32:	12 c3       	clrc			
    ae34:	0b 10       	rrc	r11		
    ae36:	0a 10       	rrc	r10		
    ae38:	12 c3       	clrc			
    ae3a:	0b 10       	rrc	r11		
    ae3c:	0a 10       	rrc	r10		
    ae3e:	12 c3       	clrc			
    ae40:	0b 10       	rrc	r11		
    ae42:	0a 10       	rrc	r10		
    ae44:	12 c3       	clrc			
    ae46:	0b 10       	rrc	r11		
    ae48:	0a 10       	rrc	r10		
    ae4a:	12 c3       	clrc			
    ae4c:	0b 10       	rrc	r11		
    ae4e:	0a 10       	rrc	r10		
  uint32_t r0 = len % (uint32_t)64U;
  uint8_t *blocks0 = data;
  uint8_t *last0 = data + n0 * (uint32_t)64U;
    ae50:	09 4a       	mov	r10,	r9	
    ae52:	09 59       	rla	r9		
    ae54:	09 59       	rla	r9		
    ae56:	09 59       	rla	r9		
    ae58:	09 59       	rla	r9		
    ae5a:	09 59       	rla	r9		
    ae5c:	09 59       	rla	r9		
    ae5e:	09 55       	add	r5,	r9	
  Hacl_Impl_SHA2_256_init(state0);
    ae60:	0f 41       	mov	r1,	r15	
    ae62:	3f 50 80 00 	add	#128,	r15	;#0x0080
    ae66:	b0 12 70 a0 	call	#0xa070	
  Hacl_Impl_SHA2_256_update(state0, ipad);
    ae6a:	0e 41       	mov	r1,	r14	
    ae6c:	0f 41       	mov	r1,	r15	
    ae6e:	3f 50 80 00 	add	#128,	r15	;#0x0080
    ae72:	b0 12 fa a3 	call	#0xa3fa	
  Hacl_Impl_SHA2_256_update_multi(state0, blocks0, n0);
    ae76:	0c 4a       	mov	r10,	r12	
    ae78:	0d 4b       	mov	r11,	r13	
    ae7a:	0e 45       	mov	r5,	r14	
    ae7c:	0f 41       	mov	r1,	r15	
    ae7e:	3f 50 80 00 	add	#128,	r15	;#0x0080
    ae82:	b0 12 2e aa 	call	#0xaa2e	
  Hacl_Impl_SHA2_256_update_last(state0, last0, r0);
    ae86:	0c 46       	mov	r6,	r12	
    ae88:	0d 47       	mov	r7,	r13	
    ae8a:	3c f0 3f 00 	and	#63,	r12	;#0x003f
    ae8e:	0d f3       	and	#0,	r13	;r3 As==00
    ae90:	0e 49       	mov	r9,	r14	
    ae92:	0f 41       	mov	r1,	r15	
    ae94:	3f 50 80 00 	add	#128,	r15	;#0x0080
    ae98:	b0 12 74 aa 	call	#0xaa74	
  uint8_t *hash0 = ipad;
  Hacl_Impl_SHA2_256_finish(state0, hash0);
    ae9c:	0e 41       	mov	r1,	r14	
    ae9e:	0f 41       	mov	r1,	r15	
    aea0:	3f 50 80 00 	add	#128,	r15	;#0x0080
    aea4:	b0 12 d6 ac 	call	#0xacd6	
  uint8_t *s4 = ipad;
  Hacl_Impl_HMAC_SHA2_256_xor_bytes_inplace(opad, key, (uint32_t)64U);
    aea8:	3c 40 40 00 	mov	#64,	r12	;#0x0040
    aeac:	0d 43       	clr	r13		
    aeae:	0e 48       	mov	r8,	r14	
    aeb0:	0f 41       	mov	r1,	r15	
    aeb2:	3f 50 40 00 	add	#64,	r15	;#0x0040
    aeb6:	b0 12 d2 a3 	call	#0xa3d2	
  uint32_t state1[137U] = { 0U };
    aeba:	3d 40 24 02 	mov	#548,	r13	;#0x0224
    aebe:	0e 43       	clr	r14		
    aec0:	0f 41       	mov	r1,	r15	
    aec2:	3f 50 a4 02 	add	#676,	r15	;#0x02a4
    aec6:	b0 12 28 b1 	call	#0xb128	
  Hacl_Impl_SHA2_256_init(state1);
    aeca:	0f 41       	mov	r1,	r15	
    aecc:	3f 50 a4 02 	add	#676,	r15	;#0x02a4
    aed0:	b0 12 70 a0 	call	#0xa070	
  Hacl_Impl_SHA2_256_update(state1, opad);
    aed4:	0e 41       	mov	r1,	r14	
    aed6:	3e 50 40 00 	add	#64,	r14	;#0x0040
    aeda:	0f 41       	mov	r1,	r15	
    aedc:	3f 50 a4 02 	add	#676,	r15	;#0x02a4
    aee0:	b0 12 fa a3 	call	#0xa3fa	
  Hacl_Impl_SHA2_256_update_last(state1, s4, (uint32_t)32U);
    aee4:	3c 40 20 00 	mov	#32,	r12	;#0x0020
    aee8:	0d 43       	clr	r13		
    aeea:	0e 41       	mov	r1,	r14	
    aeec:	0f 41       	mov	r1,	r15	
    aeee:	3f 50 a4 02 	add	#676,	r15	;#0x02a4
    aef2:	b0 12 74 aa 	call	#0xaa74	
  Hacl_Impl_SHA2_256_finish(state1, mac);
    aef6:	0e 44       	mov	r4,	r14	
    aef8:	0f 41       	mov	r1,	r15	
    aefa:	3f 50 a4 02 	add	#676,	r15	;#0x02a4
    aefe:	b0 12 d6 ac 	call	#0xacd6	
}
    af02:	31 50 c8 04 	add	#1224,	r1	;#0x04c8
    af06:	34 41       	pop	r4		
    af08:	35 41       	pop	r5		
    af0a:	36 41       	pop	r6		
    af0c:	37 41       	pop	r7		
    af0e:	38 41       	pop	r8		
    af10:	39 41       	pop	r9		
    af12:	3a 41       	pop	r10		
    af14:	3b 41       	pop	r11		
    af16:	30 41       	ret			

0000af18 <Hacl_Impl_HMAC_SHA2_256_hmac>:
  uint8_t *key,
  uint32_t keylen,
  uint8_t *data,
  uint32_t datalen
)
{
    af18:	0b 12       	push	r11		
    af1a:	0a 12       	push	r10		
    af1c:	09 12       	push	r9		
    af1e:	08 12       	push	r8		
    af20:	07 12       	push	r7		
    af22:	06 12       	push	r6		
    af24:	05 12       	push	r5		
    af26:	31 50 9c fd 	add	#-612,	r1	;#0xfd9c
    af2a:	05 4f       	mov	r15,	r5	
    af2c:	08 4e       	mov	r14,	r8	
    af2e:	06 4c       	mov	r12,	r6	
    af30:	07 4d       	mov	r13,	r7	
    af32:	0b 41       	mov	r1,	r11	
  Hacl_Impl_SHA2_256_update_last(state1, s4, (uint32_t)32U);
  Hacl_Impl_SHA2_256_finish(state1, mac);
}

static void
Hacl_Impl_HMAC_SHA2_256_hmac(
    af34:	0a 41       	mov	r1,	r10	
    af36:	3a 50 40 00 	add	#64,	r10	;#0x0040
  uint32_t datalen
)
{
  uint8_t nkey[64U];
  for (uint32_t _i = 0U; _i < (uint32_t)64U; ++_i)
    nkey[_i] = (uint8_t)0x00U;
    af3a:	cb 43 00 00 	mov.b	#0,	0(r11)	;r3 As==00, 0x0000(r11)
    af3e:	1b 53       	inc	r11		
  uint8_t *data,
  uint32_t datalen
)
{
  uint8_t nkey[64U];
  for (uint32_t _i = 0U; _i < (uint32_t)64U; ++_i)
    af40:	0b 9a       	cmp	r10,	r11	
    af42:	fb 23       	jnz	$-8      	;abs 0xaf3a
    nkey[_i] = (uint8_t)0x00U;
  if (keylen <= (uint32_t)64U)
    af44:	17 93       	cmp	#1,	r7	;r3 As==01
    af46:	09 2c       	jc	$+20     	;abs 0xaf5a
    af48:	36 90 41 00 	cmp	#65,	r6	;#0x0041
    af4c:	06 2c       	jc	$+14     	;abs 0xaf5a
    memcpy(nkey, key, keylen * sizeof key[0U]);
    af4e:	0d 46       	mov	r6,	r13	
    af50:	0e 48       	mov	r8,	r14	
    af52:	0f 41       	mov	r1,	r15	
    af54:	b0 12 2e b0 	call	#0xb02e	
    af58:	42 3c       	jmp	$+134    	;abs 0xafde
  Hacl_Hash_Lib_LoadStore_uint32s_to_be_bytes(hash1, hash_w, (uint32_t)8U);
}

static void Hacl_Impl_SHA2_256_hash(uint8_t *hash1, uint8_t *input, uint32_t len)
{
  uint32_t state[137U] = { 0U };
    af5a:	3d 40 24 02 	mov	#548,	r13	;#0x0224
    af5e:	0e 43       	clr	r14		
    af60:	0f 41       	mov	r1,	r15	
    af62:	3f 50 40 00 	add	#64,	r15	;#0x0040
    af66:	b0 12 28 b1 	call	#0xb128	
  uint32_t n1 = len / (uint32_t)64U;
    af6a:	0a 46       	mov	r6,	r10	
    af6c:	0b 47       	mov	r7,	r11	
    af6e:	12 c3       	clrc			
    af70:	0b 10       	rrc	r11		
    af72:	0a 10       	rrc	r10		
    af74:	12 c3       	clrc			
    af76:	0b 10       	rrc	r11		
    af78:	0a 10       	rrc	r10		
    af7a:	12 c3       	clrc			
    af7c:	0b 10       	rrc	r11		
    af7e:	0a 10       	rrc	r10		
    af80:	12 c3       	clrc			
    af82:	0b 10       	rrc	r11		
    af84:	0a 10       	rrc	r10		
    af86:	12 c3       	clrc			
    af88:	0b 10       	rrc	r11		
    af8a:	0a 10       	rrc	r10		
    af8c:	12 c3       	clrc			
    af8e:	0b 10       	rrc	r11		
    af90:	0a 10       	rrc	r10		
  uint32_t r = len % (uint32_t)64U;
  uint8_t *input_blocks = input;
  uint8_t *input_last = input + n1 * (uint32_t)64U;
    af92:	09 4a       	mov	r10,	r9	
    af94:	09 59       	rla	r9		
    af96:	09 59       	rla	r9		
    af98:	09 59       	rla	r9		
    af9a:	09 59       	rla	r9		
    af9c:	09 59       	rla	r9		
    af9e:	09 59       	rla	r9		
    afa0:	09 58       	add	r8,	r9	
  Hacl_Impl_SHA2_256_init(state);
    afa2:	0f 41       	mov	r1,	r15	
    afa4:	3f 50 40 00 	add	#64,	r15	;#0x0040
    afa8:	b0 12 70 a0 	call	#0xa070	
  Hacl_Impl_SHA2_256_update_multi(state, input_blocks, n1);
    afac:	0c 4a       	mov	r10,	r12	
    afae:	0d 4b       	mov	r11,	r13	
    afb0:	0e 48       	mov	r8,	r14	
    afb2:	0f 41       	mov	r1,	r15	
    afb4:	3f 50 40 00 	add	#64,	r15	;#0x0040
    afb8:	b0 12 2e aa 	call	#0xaa2e	
  Hacl_Impl_SHA2_256_update_last(state, input_last, r);
    afbc:	0c 46       	mov	r6,	r12	
    afbe:	0d 47       	mov	r7,	r13	
    afc0:	3c f0 3f 00 	and	#63,	r12	;#0x003f
    afc4:	0d f3       	and	#0,	r13	;r3 As==00
    afc6:	0e 49       	mov	r9,	r14	
    afc8:	0f 41       	mov	r1,	r15	
    afca:	3f 50 40 00 	add	#64,	r15	;#0x0040
    afce:	b0 12 74 aa 	call	#0xaa74	
  Hacl_Impl_SHA2_256_finish(state, hash1);
    afd2:	0e 41       	mov	r1,	r14	
    afd4:	0f 41       	mov	r1,	r15	
    afd6:	3f 50 40 00 	add	#64,	r15	;#0x0040
    afda:	b0 12 d6 ac 	call	#0xacd6	
  else
  {
    uint8_t *nkey0 = nkey;
    Hacl_Impl_SHA2_256_hash(nkey0, key, keylen);
  }
  Hacl_Impl_HMAC_SHA2_256_hmac_core(mac, nkey, data, datalen);
    afde:	11 12 7a 02 	push	634(r1)	;0x027a(r1)
    afe2:	11 12 7a 02 	push	634(r1)	;0x027a(r1)
    afe6:	1d 41 78 02 	mov	632(r1),r13	;0x0278(r1)
    afea:	0e 41       	mov	r1,	r14	
    afec:	2e 52       	add	#4,	r14	;r2 As==10
    afee:	0f 45       	mov	r5,	r15	
    aff0:	b0 12 bc ad 	call	#0xadbc	
}
    aff4:	31 50 68 02 	add	#616,	r1	;#0x0268
    aff8:	35 41       	pop	r5		
    affa:	36 41       	pop	r6		
    affc:	37 41       	pop	r7		
    affe:	38 41       	pop	r8		
    b000:	39 41       	pop	r9		
    b002:	3a 41       	pop	r10		
    b004:	3b 41       	pop	r11		
    b006:	30 41       	ret			

0000b008 <hmac_core>:

void hmac_core(uint8_t *mac, uint8_t *key, uint8_t *data, uint32_t len)
{
  Hacl_Impl_HMAC_SHA2_256_hmac_core(mac, key, data, len);
    b008:	11 12 06 00 	push	6(r1)		;0x0006(r1)
    b00c:	11 12 06 00 	push	6(r1)		;0x0006(r1)
    b010:	b0 12 bc ad 	call	#0xadbc	
    b014:	21 52       	add	#4,	r1	;r2 As==10
}
    b016:	30 41       	ret			

0000b018 <hmac>:

void hmac(uint8_t *mac, uint8_t *key, uint32_t keylen, uint8_t *data, uint32_t datalen)
{
  Hacl_Impl_HMAC_SHA2_256_hmac(mac, key, keylen, data, datalen);
    b018:	11 12 08 00 	push	8(r1)		;0x0008(r1)
    b01c:	11 12 08 00 	push	8(r1)		;0x0008(r1)
    b020:	11 12 08 00 	push	8(r1)		;0x0008(r1)
    b024:	b0 12 18 af 	call	#0xaf18	
    b028:	31 50 06 00 	add	#6,	r1	;#0x0006
}
    b02c:	30 41       	ret			

0000b02e <memcpy>:
    b02e:	0b 12       	push	r11		
    b030:	0a 12       	push	r10		
    b032:	09 12       	push	r9		
    b034:	08 12       	push	r8		
    b036:	07 12       	push	r7		
    b038:	0d 93       	tst	r13		
    b03a:	70 24       	jz	$+226    	;abs 0xb11c
    b03c:	0f 9e       	cmp	r14,	r15	
    b03e:	6e 24       	jz	$+222    	;abs 0xb11c
    b040:	34 2c       	jc	$+106    	;abs 0xb0aa
    b042:	0c 4e       	mov	r14,	r12	
    b044:	0c df       	bis	r15,	r12	
    b046:	1c f3       	and	#1,	r12	;r3 As==01
    b048:	1b 24       	jz	$+56     	;abs 0xb080
    b04a:	0c 4e       	mov	r14,	r12	
    b04c:	0c ef       	xor	r15,	r12	
    b04e:	1c f3       	and	#1,	r12	;r3 As==01
    b050:	07 20       	jnz	$+16     	;abs 0xb060
    b052:	2d 93       	cmp	#2,	r13	;r3 As==10
    b054:	07 28       	jnc	$+16     	;abs 0xb064
    b056:	0b 4e       	mov	r14,	r11	
    b058:	1b f3       	and	#1,	r11	;r3 As==01
    b05a:	2c 43       	mov	#2,	r12	;r3 As==10
    b05c:	0c 8b       	sub	r11,	r12	
    b05e:	03 3c       	jmp	$+8      	;abs 0xb066
    b060:	0c 4d       	mov	r13,	r12	
    b062:	01 3c       	jmp	$+4      	;abs 0xb066
    b064:	1c 43       	mov	#1,	r12	;r3 As==01
    b066:	0d 8c       	sub	r12,	r13	
    b068:	0a 4c       	mov	r12,	r10	
    b06a:	09 4e       	mov	r14,	r9	
    b06c:	0b 4f       	mov	r15,	r11	
    b06e:	fb 49 00 00 	mov.b	@r9+,	0(r11)	;0x0000(r11)
    b072:	1b 53       	inc	r11		
    b074:	3a 53       	add	#-1,	r10	;r3 As==11
    b076:	fb 23       	jnz	$-8      	;abs 0xb06e
    b078:	0a 4f       	mov	r15,	r10	
    b07a:	0a 5c       	add	r12,	r10	
    b07c:	0e 5c       	add	r12,	r14	
    b07e:	01 3c       	jmp	$+4      	;abs 0xb082
    b080:	0a 4f       	mov	r15,	r10	
    b082:	0b 4d       	mov	r13,	r11	
    b084:	12 c3       	clrc			
    b086:	0b 10       	rrc	r11		
    b088:	0b 24       	jz	$+24     	;abs 0xb0a0
    b08a:	09 4b       	mov	r11,	r9	
    b08c:	08 4e       	mov	r14,	r8	
    b08e:	0c 4a       	mov	r10,	r12	
    b090:	bc 48 00 00 	mov	@r8+,	0(r12)	;0x0000(r12)
    b094:	2c 53       	incd	r12		
    b096:	39 53       	add	#-1,	r9	;r3 As==11
    b098:	fb 23       	jnz	$-8      	;abs 0xb090
    b09a:	0b 5b       	rla	r11		
    b09c:	0e 5b       	add	r11,	r14	
    b09e:	0a 5b       	add	r11,	r10	
    b0a0:	1d f3       	and	#1,	r13	;r3 As==01
    b0a2:	3c 24       	jz	$+122    	;abs 0xb11c
    b0a4:	ea 4e 00 00 	mov.b	@r14,	0(r10)	;0x0000(r10)
    b0a8:	39 3c       	jmp	$+116    	;abs 0xb11c
    b0aa:	0e 5d       	add	r13,	r14	
    b0ac:	0c 4f       	mov	r15,	r12	
    b0ae:	0c 5d       	add	r13,	r12	
    b0b0:	0b 4c       	mov	r12,	r11	
    b0b2:	0b de       	bis	r14,	r11	
    b0b4:	1b f3       	and	#1,	r11	;r3 As==01
    b0b6:	1b 24       	jz	$+56     	;abs 0xb0ee
    b0b8:	0b 4c       	mov	r12,	r11	
    b0ba:	0b ee       	xor	r14,	r11	
    b0bc:	1b f3       	and	#1,	r11	;r3 As==01
    b0be:	06 20       	jnz	$+14     	;abs 0xb0cc
    b0c0:	3d 90 03 00 	cmp	#3,	r13	;#0x0003
    b0c4:	03 28       	jnc	$+8      	;abs 0xb0cc
    b0c6:	0b 4e       	mov	r14,	r11	
    b0c8:	1b f3       	and	#1,	r11	;r3 As==01
    b0ca:	01 3c       	jmp	$+4      	;abs 0xb0ce
    b0cc:	0b 4d       	mov	r13,	r11	
    b0ce:	0d 8b       	sub	r11,	r13	
    b0d0:	09 4e       	mov	r14,	r9	
    b0d2:	0a 4c       	mov	r12,	r10	
    b0d4:	08 4b       	mov	r11,	r8	
    b0d6:	08 8c       	sub	r12,	r8	
    b0d8:	3a 53       	add	#-1,	r10	;r3 As==11
    b0da:	39 53       	add	#-1,	r9	;r3 As==11
    b0dc:	ea 49 00 00 	mov.b	@r9,	0(r10)	;0x0000(r10)
    b0e0:	07 4a       	mov	r10,	r7	
    b0e2:	07 58       	add	r8,	r7	
    b0e4:	f9 23       	jnz	$-12     	;abs 0xb0d8
    b0e6:	3b e3       	inv	r11		
    b0e8:	1b 53       	inc	r11		
    b0ea:	0c 5b       	add	r11,	r12	
    b0ec:	0e 5b       	add	r11,	r14	
    b0ee:	0b 4d       	mov	r13,	r11	
    b0f0:	12 c3       	clrc			
    b0f2:	0b 10       	rrc	r11		
    b0f4:	0e 24       	jz	$+30     	;abs 0xb112
    b0f6:	0a 4b       	mov	r11,	r10	
    b0f8:	08 4e       	mov	r14,	r8	
    b0fa:	09 4c       	mov	r12,	r9	
    b0fc:	28 83       	decd	r8		
    b0fe:	29 83       	decd	r9		
    b100:	a9 48 00 00 	mov	@r8,	0(r9)	;0x0000(r9)
    b104:	3a 53       	add	#-1,	r10	;r3 As==11
    b106:	fa 23       	jnz	$-10     	;abs 0xb0fc
    b108:	0a 8b       	sub	r11,	r10	
    b10a:	0b 4a       	mov	r10,	r11	
    b10c:	0b 5b       	rla	r11		
    b10e:	0e 5b       	add	r11,	r14	
    b110:	0c 5b       	add	r11,	r12	
    b112:	1d f3       	and	#1,	r13	;r3 As==01
    b114:	03 24       	jz	$+8      	;abs 0xb11c
    b116:	dc 4e ff ff 	mov.b	-1(r14),-1(r12)	;0xffff(r14), 0xffff(r12)
    b11a:	ff ff 
    b11c:	37 41       	pop	r7		
    b11e:	38 41       	pop	r8		
    b120:	39 41       	pop	r9		
    b122:	3a 41       	pop	r10		
    b124:	3b 41       	pop	r11		
    b126:	30 41       	ret			

0000b128 <memset>:
    b128:	0b 12       	push	r11		
    b12a:	0a 12       	push	r10		
    b12c:	09 12       	push	r9		
    b12e:	08 12       	push	r8		
    b130:	3d 90 06 00 	cmp	#6,	r13	;#0x0006
    b134:	09 2c       	jc	$+20     	;abs 0xb148
    b136:	0c 4f       	mov	r15,	r12	
    b138:	04 3c       	jmp	$+10     	;abs 0xb142
    b13a:	cc 4e 00 00 	mov.b	r14,	0(r12)	;0x0000(r12)
    b13e:	1c 53       	inc	r12		
    b140:	3d 53       	add	#-1,	r13	;r3 As==11
    b142:	0d 93       	tst	r13		
    b144:	fa 23       	jnz	$-10     	;abs 0xb13a
    b146:	20 3c       	jmp	$+66     	;abs 0xb188
    b148:	4e 4e       	mov.b	r14,	r14	
    b14a:	4b 4e       	mov.b	r14,	r11	
    b14c:	0b 93       	tst	r11		
    b14e:	03 24       	jz	$+8      	;abs 0xb156
    b150:	0c 4b       	mov	r11,	r12	
    b152:	8c 10       	swpb	r12		
    b154:	0b dc       	bis	r12,	r11	
    b156:	1f b3       	bit	#1,	r15	;r3 As==01
    b158:	06 24       	jz	$+14     	;abs 0xb166
    b15a:	3d 53       	add	#-1,	r13	;r3 As==11
    b15c:	cf 4e 00 00 	mov.b	r14,	0(r15)	;0x0000(r15)
    b160:	09 4f       	mov	r15,	r9	
    b162:	19 53       	inc	r9		
    b164:	01 3c       	jmp	$+4      	;abs 0xb168
    b166:	09 4f       	mov	r15,	r9	
    b168:	0c 4d       	mov	r13,	r12	
    b16a:	12 c3       	clrc			
    b16c:	0c 10       	rrc	r12		
    b16e:	0a 49       	mov	r9,	r10	
    b170:	08 4c       	mov	r12,	r8	
    b172:	8a 4b 00 00 	mov	r11,	0(r10)	;0x0000(r10)
    b176:	2a 53       	incd	r10		
    b178:	38 53       	add	#-1,	r8	;r3 As==11
    b17a:	fb 23       	jnz	$-8      	;abs 0xb172
    b17c:	0c 5c       	rla	r12		
    b17e:	0c 59       	add	r9,	r12	
    b180:	1d f3       	and	#1,	r13	;r3 As==01
    b182:	02 24       	jz	$+6      	;abs 0xb188
    b184:	cc 4e 00 00 	mov.b	r14,	0(r12)	;0x0000(r12)
    b188:	38 41       	pop	r8		
    b18a:	39 41       	pop	r9		
    b18c:	3a 41       	pop	r10		
    b18e:	3b 41       	pop	r11		
    b190:	30 41       	ret			

0000b192 <__cur_offset>:
    b192:	03 43       	nop			
    b194:	03 43       	nop			
    b196:	03 43       	nop			
    b198:	03 43       	nop			
    b19a:	03 43       	nop			
    b19c:	03 43       	nop			
    b19e:	03 43       	nop			
    b1a0:	03 43       	nop			
    b1a2:	03 43       	nop			
    b1a4:	03 43       	nop			
    b1a6:	03 43       	nop			
    b1a8:	03 43       	nop			
    b1aa:	03 43       	nop			
    b1ac:	03 43       	nop			
    b1ae:	03 43       	nop			
    b1b0:	03 43       	nop			
    b1b2:	03 43       	nop			
    b1b4:	03 43       	nop			
    b1b6:	03 43       	nop			
    b1b8:	03 43       	nop			
    b1ba:	03 43       	nop			
    b1bc:	03 43       	nop			
    b1be:	03 43       	nop			
    b1c0:	03 43       	nop			
    b1c2:	03 43       	nop			
    b1c4:	03 43       	nop			
    b1c6:	03 43       	nop			
    b1c8:	03 43       	nop			
    b1ca:	03 43       	nop			
    b1cc:	03 43       	nop			
    b1ce:	03 43       	nop			
    b1d0:	03 43       	nop			
    b1d2:	03 43       	nop			
    b1d4:	03 43       	nop			
    b1d6:	03 43       	nop			
    b1d8:	03 43       	nop			
    b1da:	03 43       	nop			
    b1dc:	03 43       	nop			
    b1de:	03 43       	nop			
    b1e0:	03 43       	nop			
    b1e2:	03 43       	nop			
    b1e4:	03 43       	nop			
    b1e6:	03 43       	nop			
    b1e8:	03 43       	nop			
    b1ea:	03 43       	nop			
    b1ec:	03 43       	nop			
    b1ee:	03 43       	nop			
    b1f0:	03 43       	nop			
    b1f2:	03 43       	nop			
    b1f4:	03 43       	nop			
    b1f6:	03 43       	nop			
    b1f8:	03 43       	nop			
    b1fa:	03 43       	nop			
    b1fc:	03 43       	nop			
    b1fe:	03 43       	nop			
    b200:	03 43       	nop			
    b202:	03 43       	nop			
    b204:	03 43       	nop			
    b206:	03 43       	nop			
    b208:	03 43       	nop			
    b20a:	03 43       	nop			
    b20c:	03 43       	nop			
    b20e:	03 43       	nop			
    b210:	03 43       	nop			
    b212:	03 43       	nop			
    b214:	03 43       	nop			
    b216:	03 43       	nop			
    b218:	03 43       	nop			
    b21a:	03 43       	nop			
    b21c:	03 43       	nop			
    b21e:	03 43       	nop			
    b220:	03 43       	nop			
    b222:	03 43       	nop			
    b224:	03 43       	nop			
    b226:	03 43       	nop			
    b228:	03 43       	nop			
    b22a:	03 43       	nop			
    b22c:	03 43       	nop			
    b22e:	03 43       	nop			
    b230:	03 43       	nop			
    b232:	03 43       	nop			
    b234:	03 43       	nop			
    b236:	03 43       	nop			
    b238:	03 43       	nop			
    b23a:	03 43       	nop			
    b23c:	03 43       	nop			
    b23e:	03 43       	nop			
    b240:	03 43       	nop			
    b242:	03 43       	nop			
    b244:	03 43       	nop			
    b246:	03 43       	nop			
    b248:	03 43       	nop			
    b24a:	03 43       	nop			
    b24c:	03 43       	nop			
    b24e:	03 43       	nop			
    b250:	03 43       	nop			
    b252:	03 43       	nop			
    b254:	03 43       	nop			
    b256:	03 43       	nop			
    b258:	03 43       	nop			
    b25a:	03 43       	nop			
    b25c:	03 43       	nop			
    b25e:	03 43       	nop			
    b260:	03 43       	nop			
    b262:	03 43       	nop			
    b264:	03 43       	nop			
    b266:	03 43       	nop			
    b268:	03 43       	nop			
    b26a:	03 43       	nop			
    b26c:	03 43       	nop			
    b26e:	03 43       	nop			
    b270:	03 43       	nop			
    b272:	03 43       	nop			
    b274:	03 43       	nop			
    b276:	03 43       	nop			
    b278:	03 43       	nop			
    b27a:	03 43       	nop			
    b27c:	03 43       	nop			
    b27e:	03 43       	nop			
    b280:	03 43       	nop			
    b282:	03 43       	nop			
    b284:	03 43       	nop			
    b286:	03 43       	nop			
    b288:	03 43       	nop			
    b28a:	03 43       	nop			
    b28c:	03 43       	nop			
    b28e:	03 43       	nop			
    b290:	03 43       	nop			
    b292:	03 43       	nop			
    b294:	03 43       	nop			
    b296:	03 43       	nop			
    b298:	03 43       	nop			
    b29a:	03 43       	nop			
    b29c:	03 43       	nop			
    b29e:	03 43       	nop			
    b2a0:	03 43       	nop			
    b2a2:	03 43       	nop			
    b2a4:	03 43       	nop			
    b2a6:	03 43       	nop			
    b2a8:	03 43       	nop			
    b2aa:	03 43       	nop			
    b2ac:	03 43       	nop			
    b2ae:	03 43       	nop			
    b2b0:	03 43       	nop			
    b2b2:	03 43       	nop			
    b2b4:	03 43       	nop			
    b2b6:	03 43       	nop			
    b2b8:	03 43       	nop			
    b2ba:	03 43       	nop			
    b2bc:	03 43       	nop			
    b2be:	03 43       	nop			
    b2c0:	03 43       	nop			
    b2c2:	03 43       	nop			
    b2c4:	03 43       	nop			
    b2c6:	03 43       	nop			
    b2c8:	03 43       	nop			
    b2ca:	03 43       	nop			
    b2cc:	03 43       	nop			
    b2ce:	03 43       	nop			
    b2d0:	03 43       	nop			
    b2d2:	03 43       	nop			
    b2d4:	03 43       	nop			
    b2d6:	03 43       	nop			
    b2d8:	03 43       	nop			
    b2da:	03 43       	nop			
    b2dc:	03 43       	nop			
    b2de:	03 43       	nop			
    b2e0:	03 43       	nop			
    b2e2:	03 43       	nop			
    b2e4:	03 43       	nop			
    b2e6:	03 43       	nop			
    b2e8:	03 43       	nop			
    b2ea:	03 43       	nop			
    b2ec:	03 43       	nop			
    b2ee:	03 43       	nop			
    b2f0:	03 43       	nop			
    b2f2:	03 43       	nop			
    b2f4:	03 43       	nop			
    b2f6:	03 43       	nop			
    b2f8:	03 43       	nop			
    b2fa:	03 43       	nop			
    b2fc:	03 43       	nop			
    b2fe:	03 43       	nop			
    b300:	03 43       	nop			
    b302:	03 43       	nop			
    b304:	03 43       	nop			
    b306:	03 43       	nop			
    b308:	03 43       	nop			
    b30a:	03 43       	nop			
    b30c:	03 43       	nop			
    b30e:	03 43       	nop			
    b310:	03 43       	nop			
    b312:	03 43       	nop			
    b314:	03 43       	nop			
    b316:	03 43       	nop			
    b318:	03 43       	nop			
    b31a:	03 43       	nop			
    b31c:	03 43       	nop			
    b31e:	03 43       	nop			
    b320:	03 43       	nop			
    b322:	03 43       	nop			
    b324:	03 43       	nop			
    b326:	03 43       	nop			
    b328:	03 43       	nop			
    b32a:	03 43       	nop			
    b32c:	03 43       	nop			
    b32e:	03 43       	nop			
    b330:	03 43       	nop			
    b332:	03 43       	nop			
    b334:	03 43       	nop			
    b336:	03 43       	nop			
    b338:	03 43       	nop			
    b33a:	03 43       	nop			
    b33c:	03 43       	nop			
    b33e:	03 43       	nop			
    b340:	03 43       	nop			
    b342:	03 43       	nop			
    b344:	03 43       	nop			
    b346:	03 43       	nop			
    b348:	03 43       	nop			
    b34a:	03 43       	nop			
    b34c:	03 43       	nop			
    b34e:	03 43       	nop			
    b350:	03 43       	nop			
    b352:	03 43       	nop			
    b354:	03 43       	nop			
    b356:	03 43       	nop			
    b358:	03 43       	nop			
    b35a:	03 43       	nop			
    b35c:	03 43       	nop			
    b35e:	03 43       	nop			
    b360:	03 43       	nop			
    b362:	03 43       	nop			
    b364:	03 43       	nop			
    b366:	03 43       	nop			
    b368:	03 43       	nop			
    b36a:	03 43       	nop			
    b36c:	03 43       	nop			
    b36e:	03 43       	nop			
    b370:	03 43       	nop			
    b372:	03 43       	nop			
    b374:	03 43       	nop			
    b376:	03 43       	nop			
    b378:	03 43       	nop			
    b37a:	03 43       	nop			
    b37c:	03 43       	nop			
    b37e:	03 43       	nop			
    b380:	03 43       	nop			
    b382:	03 43       	nop			
    b384:	03 43       	nop			
    b386:	03 43       	nop			
    b388:	03 43       	nop			
    b38a:	03 43       	nop			
    b38c:	03 43       	nop			
    b38e:	03 43       	nop			
    b390:	03 43       	nop			
    b392:	03 43       	nop			
    b394:	03 43       	nop			
    b396:	03 43       	nop			
    b398:	03 43       	nop			
    b39a:	03 43       	nop			
    b39c:	03 43       	nop			
    b39e:	03 43       	nop			
    b3a0:	03 43       	nop			
    b3a2:	03 43       	nop			
    b3a4:	03 43       	nop			
    b3a6:	03 43       	nop			
    b3a8:	03 43       	nop			
    b3aa:	03 43       	nop			
    b3ac:	03 43       	nop			
    b3ae:	03 43       	nop			
    b3b0:	03 43       	nop			
    b3b2:	03 43       	nop			
    b3b4:	03 43       	nop			
    b3b6:	03 43       	nop			
    b3b8:	03 43       	nop			
    b3ba:	03 43       	nop			
    b3bc:	03 43       	nop			
    b3be:	03 43       	nop			
    b3c0:	03 43       	nop			
    b3c2:	03 43       	nop			
    b3c4:	03 43       	nop			
    b3c6:	03 43       	nop			
    b3c8:	03 43       	nop			
    b3ca:	03 43       	nop			
    b3cc:	03 43       	nop			
    b3ce:	03 43       	nop			
    b3d0:	03 43       	nop			
    b3d2:	03 43       	nop			
    b3d4:	03 43       	nop			
    b3d6:	03 43       	nop			
    b3d8:	03 43       	nop			
    b3da:	03 43       	nop			
    b3dc:	03 43       	nop			
    b3de:	03 43       	nop			
    b3e0:	03 43       	nop			
    b3e2:	03 43       	nop			
    b3e4:	03 43       	nop			
    b3e6:	03 43       	nop			
    b3e8:	03 43       	nop			
    b3ea:	03 43       	nop			
    b3ec:	03 43       	nop			
    b3ee:	03 43       	nop			
    b3f0:	03 43       	nop			
    b3f2:	03 43       	nop			
    b3f4:	03 43       	nop			
    b3f6:	03 43       	nop			
    b3f8:	03 43       	nop			
    b3fa:	03 43       	nop			
    b3fc:	03 43       	nop			
    b3fe:	03 43       	nop			
    b400:	03 43       	nop			
    b402:	03 43       	nop			
    b404:	03 43       	nop			
    b406:	03 43       	nop			
    b408:	03 43       	nop			
    b40a:	03 43       	nop			
    b40c:	03 43       	nop			
    b40e:	03 43       	nop			
    b410:	03 43       	nop			
    b412:	03 43       	nop			
    b414:	03 43       	nop			
    b416:	03 43       	nop			
    b418:	03 43       	nop			
    b41a:	03 43       	nop			
    b41c:	03 43       	nop			
    b41e:	03 43       	nop			
    b420:	03 43       	nop			
    b422:	03 43       	nop			
    b424:	03 43       	nop			
    b426:	03 43       	nop			
    b428:	03 43       	nop			
    b42a:	03 43       	nop			
    b42c:	03 43       	nop			
    b42e:	03 43       	nop			
    b430:	03 43       	nop			
    b432:	03 43       	nop			
    b434:	03 43       	nop			
    b436:	03 43       	nop			
    b438:	03 43       	nop			
    b43a:	03 43       	nop			
    b43c:	03 43       	nop			
    b43e:	03 43       	nop			
    b440:	03 43       	nop			
    b442:	03 43       	nop			
    b444:	03 43       	nop			
    b446:	03 43       	nop			
    b448:	03 43       	nop			
    b44a:	03 43       	nop			
    b44c:	03 43       	nop			
    b44e:	03 43       	nop			
    b450:	03 43       	nop			
    b452:	03 43       	nop			
    b454:	03 43       	nop			
    b456:	03 43       	nop			
    b458:	03 43       	nop			
    b45a:	03 43       	nop			
    b45c:	03 43       	nop			
    b45e:	03 43       	nop			
    b460:	03 43       	nop			
    b462:	03 43       	nop			
    b464:	03 43       	nop			
    b466:	03 43       	nop			
    b468:	03 43       	nop			
    b46a:	03 43       	nop			
    b46c:	03 43       	nop			
    b46e:	03 43       	nop			
    b470:	03 43       	nop			
    b472:	03 43       	nop			
    b474:	03 43       	nop			
    b476:	03 43       	nop			
    b478:	03 43       	nop			
    b47a:	03 43       	nop			
    b47c:	03 43       	nop			
    b47e:	03 43       	nop			
    b480:	03 43       	nop			
    b482:	03 43       	nop			
    b484:	03 43       	nop			
    b486:	03 43       	nop			
    b488:	03 43       	nop			
    b48a:	03 43       	nop			
    b48c:	03 43       	nop			
    b48e:	03 43       	nop			
    b490:	03 43       	nop			
    b492:	03 43       	nop			
    b494:	03 43       	nop			
    b496:	03 43       	nop			
    b498:	03 43       	nop			
    b49a:	03 43       	nop			
    b49c:	03 43       	nop			
    b49e:	03 43       	nop			
    b4a0:	03 43       	nop			
    b4a2:	03 43       	nop			
    b4a4:	03 43       	nop			
    b4a6:	03 43       	nop			
    b4a8:	03 43       	nop			
    b4aa:	03 43       	nop			
    b4ac:	03 43       	nop			
    b4ae:	03 43       	nop			
    b4b0:	03 43       	nop			
    b4b2:	03 43       	nop			
    b4b4:	03 43       	nop			
    b4b6:	03 43       	nop			
    b4b8:	03 43       	nop			
    b4ba:	03 43       	nop			
    b4bc:	03 43       	nop			
    b4be:	03 43       	nop			
    b4c0:	03 43       	nop			
    b4c2:	03 43       	nop			
    b4c4:	03 43       	nop			
    b4c6:	03 43       	nop			
    b4c8:	03 43       	nop			
    b4ca:	03 43       	nop			
    b4cc:	03 43       	nop			
    b4ce:	03 43       	nop			
    b4d0:	03 43       	nop			
    b4d2:	03 43       	nop			
    b4d4:	03 43       	nop			
    b4d6:	03 43       	nop			
    b4d8:	03 43       	nop			
    b4da:	03 43       	nop			
    b4dc:	03 43       	nop			
    b4de:	03 43       	nop			
    b4e0:	03 43       	nop			
    b4e2:	03 43       	nop			
    b4e4:	03 43       	nop			
    b4e6:	03 43       	nop			
    b4e8:	03 43       	nop			
    b4ea:	03 43       	nop			
    b4ec:	03 43       	nop			
    b4ee:	03 43       	nop			
    b4f0:	03 43       	nop			
    b4f2:	03 43       	nop			
    b4f4:	03 43       	nop			
    b4f6:	03 43       	nop			
    b4f8:	03 43       	nop			
    b4fa:	03 43       	nop			
    b4fc:	03 43       	nop			
    b4fe:	03 43       	nop			
    b500:	03 43       	nop			
    b502:	03 43       	nop			
    b504:	03 43       	nop			
    b506:	03 43       	nop			
    b508:	03 43       	nop			
    b50a:	03 43       	nop			
    b50c:	03 43       	nop			
    b50e:	03 43       	nop			
    b510:	03 43       	nop			
    b512:	03 43       	nop			
    b514:	03 43       	nop			
    b516:	03 43       	nop			
    b518:	03 43       	nop			
    b51a:	03 43       	nop			
    b51c:	03 43       	nop			
    b51e:	03 43       	nop			
    b520:	03 43       	nop			
    b522:	03 43       	nop			
    b524:	03 43       	nop			
    b526:	03 43       	nop			
    b528:	03 43       	nop			
    b52a:	03 43       	nop			
    b52c:	03 43       	nop			
    b52e:	03 43       	nop			
    b530:	03 43       	nop			
    b532:	03 43       	nop			
    b534:	03 43       	nop			
    b536:	03 43       	nop			
    b538:	03 43       	nop			
    b53a:	03 43       	nop			
    b53c:	03 43       	nop			
    b53e:	03 43       	nop			
    b540:	03 43       	nop			
    b542:	03 43       	nop			
    b544:	03 43       	nop			
    b546:	03 43       	nop			
    b548:	03 43       	nop			
    b54a:	03 43       	nop			
    b54c:	03 43       	nop			
    b54e:	03 43       	nop			
    b550:	03 43       	nop			
    b552:	03 43       	nop			
    b554:	03 43       	nop			
    b556:	03 43       	nop			
    b558:	03 43       	nop			
    b55a:	03 43       	nop			
    b55c:	03 43       	nop			
    b55e:	03 43       	nop			
    b560:	03 43       	nop			
    b562:	03 43       	nop			
    b564:	03 43       	nop			
    b566:	03 43       	nop			
    b568:	03 43       	nop			
    b56a:	03 43       	nop			
    b56c:	03 43       	nop			
    b56e:	03 43       	nop			
    b570:	03 43       	nop			
    b572:	03 43       	nop			
    b574:	03 43       	nop			
    b576:	03 43       	nop			
    b578:	03 43       	nop			
    b57a:	03 43       	nop			
    b57c:	03 43       	nop			
    b57e:	03 43       	nop			
    b580:	03 43       	nop			
    b582:	03 43       	nop			
    b584:	03 43       	nop			
    b586:	03 43       	nop			
    b588:	03 43       	nop			
    b58a:	03 43       	nop			
    b58c:	03 43       	nop			
    b58e:	03 43       	nop			
    b590:	03 43       	nop			
    b592:	03 43       	nop			
    b594:	03 43       	nop			
    b596:	03 43       	nop			
    b598:	03 43       	nop			
    b59a:	03 43       	nop			
    b59c:	03 43       	nop			
    b59e:	03 43       	nop			
    b5a0:	03 43       	nop			
    b5a2:	03 43       	nop			
    b5a4:	03 43       	nop			
    b5a6:	03 43       	nop			
    b5a8:	03 43       	nop			
    b5aa:	03 43       	nop			
    b5ac:	03 43       	nop			
    b5ae:	03 43       	nop			
    b5b0:	03 43       	nop			
    b5b2:	03 43       	nop			
    b5b4:	03 43       	nop			
    b5b6:	03 43       	nop			
    b5b8:	03 43       	nop			
    b5ba:	03 43       	nop			
    b5bc:	03 43       	nop			
    b5be:	03 43       	nop			
    b5c0:	03 43       	nop			
    b5c2:	03 43       	nop			
    b5c4:	03 43       	nop			
    b5c6:	03 43       	nop			
    b5c8:	03 43       	nop			
    b5ca:	03 43       	nop			
    b5cc:	03 43       	nop			
    b5ce:	03 43       	nop			
    b5d0:	03 43       	nop			
    b5d2:	03 43       	nop			
    b5d4:	03 43       	nop			
    b5d6:	03 43       	nop			
    b5d8:	03 43       	nop			
    b5da:	03 43       	nop			
    b5dc:	03 43       	nop			
    b5de:	03 43       	nop			
    b5e0:	03 43       	nop			
    b5e2:	03 43       	nop			
    b5e4:	03 43       	nop			
    b5e6:	03 43       	nop			
    b5e8:	03 43       	nop			
    b5ea:	03 43       	nop			
    b5ec:	03 43       	nop			
    b5ee:	03 43       	nop			
    b5f0:	03 43       	nop			
    b5f2:	03 43       	nop			
    b5f4:	03 43       	nop			
    b5f6:	03 43       	nop			
    b5f8:	03 43       	nop			
    b5fa:	03 43       	nop			
    b5fc:	03 43       	nop			
    b5fe:	03 43       	nop			
    b600:	03 43       	nop			
    b602:	03 43       	nop			
    b604:	03 43       	nop			
    b606:	03 43       	nop			
    b608:	03 43       	nop			
    b60a:	03 43       	nop			
    b60c:	03 43       	nop			
    b60e:	03 43       	nop			
    b610:	03 43       	nop			
    b612:	03 43       	nop			
    b614:	03 43       	nop			
    b616:	03 43       	nop			
    b618:	03 43       	nop			
    b61a:	03 43       	nop			
    b61c:	03 43       	nop			
    b61e:	03 43       	nop			
    b620:	03 43       	nop			
    b622:	03 43       	nop			
    b624:	03 43       	nop			
    b626:	03 43       	nop			
    b628:	03 43       	nop			
    b62a:	03 43       	nop			
    b62c:	03 43       	nop			
    b62e:	03 43       	nop			
    b630:	03 43       	nop			
    b632:	03 43       	nop			
    b634:	03 43       	nop			
    b636:	03 43       	nop			
    b638:	03 43       	nop			
    b63a:	03 43       	nop			
    b63c:	03 43       	nop			
    b63e:	03 43       	nop			
    b640:	03 43       	nop			
    b642:	03 43       	nop			
    b644:	03 43       	nop			
    b646:	03 43       	nop			
    b648:	03 43       	nop			
    b64a:	03 43       	nop			
    b64c:	03 43       	nop			
    b64e:	03 43       	nop			
    b650:	03 43       	nop			
    b652:	03 43       	nop			
    b654:	03 43       	nop			
    b656:	03 43       	nop			
    b658:	03 43       	nop			
    b65a:	03 43       	nop			
    b65c:	03 43       	nop			
    b65e:	03 43       	nop			
    b660:	03 43       	nop			
    b662:	03 43       	nop			
    b664:	03 43       	nop			
    b666:	03 43       	nop			
    b668:	03 43       	nop			
    b66a:	03 43       	nop			
    b66c:	03 43       	nop			
    b66e:	03 43       	nop			
    b670:	03 43       	nop			
    b672:	03 43       	nop			
    b674:	03 43       	nop			
    b676:	03 43       	nop			
    b678:	03 43       	nop			
    b67a:	03 43       	nop			
    b67c:	03 43       	nop			
    b67e:	03 43       	nop			
    b680:	03 43       	nop			
    b682:	03 43       	nop			
    b684:	03 43       	nop			
    b686:	03 43       	nop			
    b688:	03 43       	nop			
    b68a:	03 43       	nop			
    b68c:	03 43       	nop			
    b68e:	03 43       	nop			
    b690:	03 43       	nop			
    b692:	03 43       	nop			
    b694:	03 43       	nop			
    b696:	03 43       	nop			
    b698:	03 43       	nop			
    b69a:	03 43       	nop			
    b69c:	03 43       	nop			
    b69e:	03 43       	nop			
    b6a0:	03 43       	nop			
    b6a2:	03 43       	nop			
    b6a4:	03 43       	nop			
    b6a6:	03 43       	nop			
    b6a8:	03 43       	nop			
    b6aa:	03 43       	nop			
    b6ac:	03 43       	nop			
    b6ae:	03 43       	nop			
    b6b0:	03 43       	nop			
    b6b2:	03 43       	nop			
    b6b4:	03 43       	nop			
    b6b6:	03 43       	nop			
    b6b8:	03 43       	nop			
    b6ba:	03 43       	nop			
    b6bc:	03 43       	nop			
    b6be:	03 43       	nop			
    b6c0:	03 43       	nop			
    b6c2:	03 43       	nop			
    b6c4:	03 43       	nop			
    b6c6:	03 43       	nop			
    b6c8:	03 43       	nop			
    b6ca:	03 43       	nop			
    b6cc:	03 43       	nop			
    b6ce:	03 43       	nop			
    b6d0:	03 43       	nop			
    b6d2:	03 43       	nop			
    b6d4:	03 43       	nop			
    b6d6:	03 43       	nop			
    b6d8:	03 43       	nop			
    b6da:	03 43       	nop			
    b6dc:	03 43       	nop			
    b6de:	03 43       	nop			
    b6e0:	03 43       	nop			
    b6e2:	03 43       	nop			
    b6e4:	03 43       	nop			
    b6e6:	03 43       	nop			
    b6e8:	03 43       	nop			
    b6ea:	03 43       	nop			
    b6ec:	03 43       	nop			
    b6ee:	03 43       	nop			
    b6f0:	03 43       	nop			
    b6f2:	03 43       	nop			
    b6f4:	03 43       	nop			
    b6f6:	03 43       	nop			
    b6f8:	03 43       	nop			
    b6fa:	03 43       	nop			
    b6fc:	03 43       	nop			
    b6fe:	03 43       	nop			
    b700:	03 43       	nop			
    b702:	03 43       	nop			
    b704:	03 43       	nop			
    b706:	03 43       	nop			
    b708:	03 43       	nop			
    b70a:	03 43       	nop			
    b70c:	03 43       	nop			
    b70e:	03 43       	nop			
    b710:	03 43       	nop			
    b712:	03 43       	nop			
    b714:	03 43       	nop			
    b716:	03 43       	nop			
    b718:	03 43       	nop			
    b71a:	03 43       	nop			
    b71c:	03 43       	nop			
    b71e:	03 43       	nop			
    b720:	03 43       	nop			
    b722:	03 43       	nop			
    b724:	03 43       	nop			
    b726:	03 43       	nop			
    b728:	03 43       	nop			
    b72a:	03 43       	nop			
    b72c:	03 43       	nop			
    b72e:	03 43       	nop			
    b730:	03 43       	nop			
    b732:	03 43       	nop			
    b734:	03 43       	nop			
    b736:	03 43       	nop			
    b738:	03 43       	nop			
    b73a:	03 43       	nop			
    b73c:	03 43       	nop			
    b73e:	03 43       	nop			
    b740:	03 43       	nop			
    b742:	03 43       	nop			
    b744:	03 43       	nop			
    b746:	03 43       	nop			
    b748:	03 43       	nop			
    b74a:	03 43       	nop			
    b74c:	03 43       	nop			
    b74e:	03 43       	nop			
    b750:	03 43       	nop			
    b752:	03 43       	nop			
    b754:	03 43       	nop			
    b756:	03 43       	nop			
    b758:	03 43       	nop			
    b75a:	03 43       	nop			
    b75c:	03 43       	nop			
    b75e:	03 43       	nop			
    b760:	03 43       	nop			
    b762:	03 43       	nop			
    b764:	03 43       	nop			
    b766:	03 43       	nop			
    b768:	03 43       	nop			
    b76a:	03 43       	nop			
    b76c:	03 43       	nop			
    b76e:	03 43       	nop			
    b770:	03 43       	nop			
    b772:	03 43       	nop			
    b774:	03 43       	nop			
    b776:	03 43       	nop			
    b778:	03 43       	nop			
    b77a:	03 43       	nop			
    b77c:	03 43       	nop			
    b77e:	03 43       	nop			
    b780:	03 43       	nop			
    b782:	03 43       	nop			
    b784:	03 43       	nop			
    b786:	03 43       	nop			
    b788:	03 43       	nop			
    b78a:	03 43       	nop			
    b78c:	03 43       	nop			
    b78e:	03 43       	nop			
    b790:	03 43       	nop			
    b792:	03 43       	nop			
    b794:	03 43       	nop			
    b796:	03 43       	nop			
    b798:	03 43       	nop			
    b79a:	03 43       	nop			
    b79c:	03 43       	nop			
    b79e:	03 43       	nop			
    b7a0:	03 43       	nop			
    b7a2:	03 43       	nop			
    b7a4:	03 43       	nop			
    b7a6:	03 43       	nop			
    b7a8:	03 43       	nop			
    b7aa:	03 43       	nop			
    b7ac:	03 43       	nop			
    b7ae:	03 43       	nop			
    b7b0:	03 43       	nop			
    b7b2:	03 43       	nop			
    b7b4:	03 43       	nop			
    b7b6:	03 43       	nop			
    b7b8:	03 43       	nop			
    b7ba:	03 43       	nop			
    b7bc:	03 43       	nop			
    b7be:	03 43       	nop			
    b7c0:	03 43       	nop			
    b7c2:	03 43       	nop			
    b7c4:	03 43       	nop			
    b7c6:	03 43       	nop			
    b7c8:	03 43       	nop			
    b7ca:	03 43       	nop			
    b7cc:	03 43       	nop			
    b7ce:	03 43       	nop			
    b7d0:	03 43       	nop			
    b7d2:	03 43       	nop			
    b7d4:	03 43       	nop			
    b7d6:	03 43       	nop			
    b7d8:	03 43       	nop			
    b7da:	03 43       	nop			
    b7dc:	03 43       	nop			
    b7de:	03 43       	nop			
    b7e0:	03 43       	nop			
    b7e2:	03 43       	nop			
    b7e4:	03 43       	nop			
    b7e6:	03 43       	nop			
    b7e8:	03 43       	nop			
    b7ea:	03 43       	nop			
    b7ec:	03 43       	nop			
    b7ee:	03 43       	nop			
    b7f0:	03 43       	nop			
    b7f2:	03 43       	nop			
    b7f4:	03 43       	nop			
    b7f6:	03 43       	nop			
    b7f8:	03 43       	nop			
    b7fa:	03 43       	nop			
    b7fc:	03 43       	nop			
    b7fe:	03 43       	nop			
    b800:	03 43       	nop			
    b802:	03 43       	nop			
    b804:	03 43       	nop			
    b806:	03 43       	nop			
    b808:	03 43       	nop			
    b80a:	03 43       	nop			
    b80c:	03 43       	nop			
    b80e:	03 43       	nop			
    b810:	03 43       	nop			
    b812:	03 43       	nop			
    b814:	03 43       	nop			
    b816:	03 43       	nop			
    b818:	03 43       	nop			
    b81a:	03 43       	nop			
    b81c:	03 43       	nop			
    b81e:	03 43       	nop			
    b820:	03 43       	nop			
    b822:	03 43       	nop			
    b824:	03 43       	nop			
    b826:	03 43       	nop			
    b828:	03 43       	nop			
    b82a:	03 43       	nop			
    b82c:	03 43       	nop			
    b82e:	03 43       	nop			
    b830:	03 43       	nop			
    b832:	03 43       	nop			
    b834:	03 43       	nop			
    b836:	03 43       	nop			
    b838:	03 43       	nop			
    b83a:	03 43       	nop			
    b83c:	03 43       	nop			
    b83e:	03 43       	nop			
    b840:	03 43       	nop			
    b842:	03 43       	nop			
    b844:	03 43       	nop			
    b846:	03 43       	nop			
    b848:	03 43       	nop			
    b84a:	03 43       	nop			
    b84c:	03 43       	nop			
    b84e:	03 43       	nop			
    b850:	03 43       	nop			
    b852:	03 43       	nop			
    b854:	03 43       	nop			
    b856:	03 43       	nop			
    b858:	03 43       	nop			
    b85a:	03 43       	nop			
    b85c:	03 43       	nop			
    b85e:	03 43       	nop			
    b860:	03 43       	nop			
    b862:	03 43       	nop			
    b864:	03 43       	nop			
    b866:	03 43       	nop			
    b868:	03 43       	nop			
    b86a:	03 43       	nop			
    b86c:	03 43       	nop			
    b86e:	03 43       	nop			
    b870:	03 43       	nop			
    b872:	03 43       	nop			
    b874:	03 43       	nop			
    b876:	03 43       	nop			
    b878:	03 43       	nop			
    b87a:	03 43       	nop			
    b87c:	03 43       	nop			
    b87e:	03 43       	nop			
    b880:	03 43       	nop			
    b882:	03 43       	nop			
    b884:	03 43       	nop			
    b886:	03 43       	nop			
    b888:	03 43       	nop			
    b88a:	03 43       	nop			
    b88c:	03 43       	nop			
    b88e:	03 43       	nop			
    b890:	03 43       	nop			
    b892:	03 43       	nop			
    b894:	03 43       	nop			
    b896:	03 43       	nop			
    b898:	03 43       	nop			
    b89a:	03 43       	nop			
    b89c:	03 43       	nop			
    b89e:	03 43       	nop			
    b8a0:	03 43       	nop			
    b8a2:	03 43       	nop			
    b8a4:	03 43       	nop			
    b8a6:	03 43       	nop			
    b8a8:	03 43       	nop			
    b8aa:	03 43       	nop			
    b8ac:	03 43       	nop			
    b8ae:	03 43       	nop			
    b8b0:	03 43       	nop			
    b8b2:	03 43       	nop			
    b8b4:	03 43       	nop			
    b8b6:	03 43       	nop			
    b8b8:	03 43       	nop			
    b8ba:	03 43       	nop			
    b8bc:	03 43       	nop			
    b8be:	03 43       	nop			
    b8c0:	03 43       	nop			
    b8c2:	03 43       	nop			
    b8c4:	03 43       	nop			
    b8c6:	03 43       	nop			
    b8c8:	03 43       	nop			
    b8ca:	03 43       	nop			
    b8cc:	03 43       	nop			
    b8ce:	03 43       	nop			
    b8d0:	03 43       	nop			
    b8d2:	03 43       	nop			
    b8d4:	03 43       	nop			
    b8d6:	03 43       	nop			
    b8d8:	03 43       	nop			
    b8da:	03 43       	nop			
    b8dc:	03 43       	nop			
    b8de:	03 43       	nop			
    b8e0:	03 43       	nop			
    b8e2:	03 43       	nop			
    b8e4:	03 43       	nop			
    b8e6:	03 43       	nop			
    b8e8:	03 43       	nop			
    b8ea:	03 43       	nop			
    b8ec:	03 43       	nop			
    b8ee:	03 43       	nop			
    b8f0:	03 43       	nop			
    b8f2:	03 43       	nop			
    b8f4:	03 43       	nop			
    b8f6:	03 43       	nop			
    b8f8:	03 43       	nop			
    b8fa:	03 43       	nop			
    b8fc:	03 43       	nop			
    b8fe:	03 43       	nop			
    b900:	03 43       	nop			
    b902:	03 43       	nop			
    b904:	03 43       	nop			
    b906:	03 43       	nop			
    b908:	03 43       	nop			
    b90a:	03 43       	nop			
    b90c:	03 43       	nop			
    b90e:	03 43       	nop			
    b910:	03 43       	nop			
    b912:	03 43       	nop			
    b914:	03 43       	nop			
    b916:	03 43       	nop			
    b918:	03 43       	nop			
    b91a:	03 43       	nop			
    b91c:	03 43       	nop			
    b91e:	03 43       	nop			
    b920:	03 43       	nop			
    b922:	03 43       	nop			
    b924:	03 43       	nop			
    b926:	03 43       	nop			
    b928:	03 43       	nop			
    b92a:	03 43       	nop			
    b92c:	03 43       	nop			
    b92e:	03 43       	nop			
    b930:	03 43       	nop			
    b932:	03 43       	nop			
    b934:	03 43       	nop			
    b936:	03 43       	nop			
    b938:	03 43       	nop			
    b93a:	03 43       	nop			
    b93c:	03 43       	nop			
    b93e:	03 43       	nop			
    b940:	03 43       	nop			
    b942:	03 43       	nop			
    b944:	03 43       	nop			
    b946:	03 43       	nop			
    b948:	03 43       	nop			
    b94a:	03 43       	nop			
    b94c:	03 43       	nop			
    b94e:	03 43       	nop			
    b950:	03 43       	nop			
    b952:	03 43       	nop			
    b954:	03 43       	nop			
    b956:	03 43       	nop			
    b958:	03 43       	nop			
    b95a:	03 43       	nop			
    b95c:	03 43       	nop			
    b95e:	03 43       	nop			
    b960:	03 43       	nop			
    b962:	03 43       	nop			
    b964:	03 43       	nop			
    b966:	03 43       	nop			
    b968:	03 43       	nop			
    b96a:	03 43       	nop			
    b96c:	03 43       	nop			
    b96e:	03 43       	nop			
    b970:	03 43       	nop			
    b972:	03 43       	nop			
    b974:	03 43       	nop			
    b976:	03 43       	nop			
    b978:	03 43       	nop			
    b97a:	03 43       	nop			
    b97c:	03 43       	nop			
    b97e:	03 43       	nop			
    b980:	03 43       	nop			
    b982:	03 43       	nop			
    b984:	03 43       	nop			
    b986:	03 43       	nop			
    b988:	03 43       	nop			
    b98a:	03 43       	nop			
    b98c:	03 43       	nop			
    b98e:	03 43       	nop			
    b990:	03 43       	nop			
    b992:	03 43       	nop			
    b994:	03 43       	nop			
    b996:	03 43       	nop			
    b998:	03 43       	nop			
    b99a:	03 43       	nop			
    b99c:	03 43       	nop			
    b99e:	03 43       	nop			
    b9a0:	03 43       	nop			
    b9a2:	03 43       	nop			
    b9a4:	03 43       	nop			
    b9a6:	03 43       	nop			
    b9a8:	03 43       	nop			
    b9aa:	03 43       	nop			
    b9ac:	03 43       	nop			
    b9ae:	03 43       	nop			
    b9b0:	03 43       	nop			
    b9b2:	03 43       	nop			
    b9b4:	03 43       	nop			
    b9b6:	03 43       	nop			
    b9b8:	03 43       	nop			
    b9ba:	03 43       	nop			
    b9bc:	03 43       	nop			
    b9be:	03 43       	nop			
    b9c0:	03 43       	nop			
    b9c2:	03 43       	nop			
    b9c4:	03 43       	nop			
    b9c6:	03 43       	nop			
    b9c8:	03 43       	nop			
    b9ca:	03 43       	nop			
    b9cc:	03 43       	nop			
    b9ce:	03 43       	nop			
    b9d0:	03 43       	nop			
    b9d2:	03 43       	nop			
    b9d4:	03 43       	nop			
    b9d6:	03 43       	nop			
    b9d8:	03 43       	nop			
    b9da:	03 43       	nop			
    b9dc:	03 43       	nop			
    b9de:	03 43       	nop			
    b9e0:	03 43       	nop			
    b9e2:	03 43       	nop			
    b9e4:	03 43       	nop			
    b9e6:	03 43       	nop			
    b9e8:	03 43       	nop			
    b9ea:	03 43       	nop			
    b9ec:	03 43       	nop			
    b9ee:	03 43       	nop			
    b9f0:	03 43       	nop			
    b9f2:	03 43       	nop			
    b9f4:	03 43       	nop			
    b9f6:	03 43       	nop			
    b9f8:	03 43       	nop			
    b9fa:	03 43       	nop			
    b9fc:	03 43       	nop			
    b9fe:	03 43       	nop			
    ba00:	03 43       	nop			
    ba02:	03 43       	nop			
    ba04:	03 43       	nop			
    ba06:	03 43       	nop			
    ba08:	03 43       	nop			
    ba0a:	03 43       	nop			
    ba0c:	03 43       	nop			
    ba0e:	03 43       	nop			
    ba10:	03 43       	nop			
    ba12:	03 43       	nop			
    ba14:	03 43       	nop			
    ba16:	03 43       	nop			
    ba18:	03 43       	nop			
    ba1a:	03 43       	nop			
    ba1c:	03 43       	nop			
    ba1e:	03 43       	nop			
    ba20:	03 43       	nop			
    ba22:	03 43       	nop			
    ba24:	03 43       	nop			
    ba26:	03 43       	nop			
    ba28:	03 43       	nop			
    ba2a:	03 43       	nop			
    ba2c:	03 43       	nop			
    ba2e:	03 43       	nop			
    ba30:	03 43       	nop			
    ba32:	03 43       	nop			
    ba34:	03 43       	nop			
    ba36:	03 43       	nop			
    ba38:	03 43       	nop			
    ba3a:	03 43       	nop			
    ba3c:	03 43       	nop			
    ba3e:	03 43       	nop			
    ba40:	03 43       	nop			
    ba42:	03 43       	nop			
    ba44:	03 43       	nop			
    ba46:	03 43       	nop			
    ba48:	03 43       	nop			
    ba4a:	03 43       	nop			
    ba4c:	03 43       	nop			
    ba4e:	03 43       	nop			
    ba50:	03 43       	nop			
    ba52:	03 43       	nop			
    ba54:	03 43       	nop			
    ba56:	03 43       	nop			
    ba58:	03 43       	nop			
    ba5a:	03 43       	nop			
    ba5c:	03 43       	nop			
    ba5e:	03 43       	nop			
    ba60:	03 43       	nop			
    ba62:	03 43       	nop			
    ba64:	03 43       	nop			
    ba66:	03 43       	nop			
    ba68:	03 43       	nop			
    ba6a:	03 43       	nop			
    ba6c:	03 43       	nop			
    ba6e:	03 43       	nop			
    ba70:	03 43       	nop			
    ba72:	03 43       	nop			
    ba74:	03 43       	nop			
    ba76:	03 43       	nop			
    ba78:	03 43       	nop			
    ba7a:	03 43       	nop			
    ba7c:	03 43       	nop			
    ba7e:	03 43       	nop			
    ba80:	03 43       	nop			
    ba82:	03 43       	nop			
    ba84:	03 43       	nop			
    ba86:	03 43       	nop			
    ba88:	03 43       	nop			
    ba8a:	03 43       	nop			
    ba8c:	03 43       	nop			
    ba8e:	03 43       	nop			
    ba90:	03 43       	nop			
    ba92:	03 43       	nop			
    ba94:	03 43       	nop			
    ba96:	03 43       	nop			
    ba98:	03 43       	nop			
    ba9a:	03 43       	nop			
    ba9c:	03 43       	nop			
    ba9e:	03 43       	nop			
    baa0:	03 43       	nop			
    baa2:	03 43       	nop			
    baa4:	03 43       	nop			
    baa6:	03 43       	nop			
    baa8:	03 43       	nop			
    baaa:	03 43       	nop			
    baac:	03 43       	nop			
    baae:	03 43       	nop			
    bab0:	03 43       	nop			
    bab2:	03 43       	nop			
    bab4:	03 43       	nop			
    bab6:	03 43       	nop			
    bab8:	03 43       	nop			
    baba:	03 43       	nop			
    babc:	03 43       	nop			
    babe:	03 43       	nop			
    bac0:	03 43       	nop			
    bac2:	03 43       	nop			
    bac4:	03 43       	nop			
    bac6:	03 43       	nop			
    bac8:	03 43       	nop			
    baca:	03 43       	nop			
    bacc:	03 43       	nop			
    bace:	03 43       	nop			
    bad0:	03 43       	nop			
    bad2:	03 43       	nop			
    bad4:	03 43       	nop			
    bad6:	03 43       	nop			
    bad8:	03 43       	nop			
    bada:	03 43       	nop			
    badc:	03 43       	nop			
    bade:	03 43       	nop			
    bae0:	03 43       	nop			
    bae2:	03 43       	nop			
    bae4:	03 43       	nop			
    bae6:	03 43       	nop			
    bae8:	03 43       	nop			
    baea:	03 43       	nop			
    baec:	03 43       	nop			
    baee:	03 43       	nop			
    baf0:	03 43       	nop			
    baf2:	03 43       	nop			
    baf4:	03 43       	nop			
    baf6:	03 43       	nop			
    baf8:	03 43       	nop			
    bafa:	03 43       	nop			
    bafc:	03 43       	nop			
    bafe:	03 43       	nop			
    bb00:	03 43       	nop			
    bb02:	03 43       	nop			
    bb04:	03 43       	nop			
    bb06:	03 43       	nop			
    bb08:	03 43       	nop			
    bb0a:	03 43       	nop			
    bb0c:	03 43       	nop			
    bb0e:	03 43       	nop			
    bb10:	03 43       	nop			
    bb12:	03 43       	nop			
    bb14:	03 43       	nop			
    bb16:	03 43       	nop			
    bb18:	03 43       	nop			
    bb1a:	03 43       	nop			
    bb1c:	03 43       	nop			
    bb1e:	03 43       	nop			
    bb20:	03 43       	nop			
    bb22:	03 43       	nop			
    bb24:	03 43       	nop			
    bb26:	03 43       	nop			
    bb28:	03 43       	nop			
    bb2a:	03 43       	nop			
    bb2c:	03 43       	nop			
    bb2e:	03 43       	nop			
    bb30:	03 43       	nop			
    bb32:	03 43       	nop			
    bb34:	03 43       	nop			
    bb36:	03 43       	nop			
    bb38:	03 43       	nop			
    bb3a:	03 43       	nop			
    bb3c:	03 43       	nop			
    bb3e:	03 43       	nop			
    bb40:	03 43       	nop			
    bb42:	03 43       	nop			
    bb44:	03 43       	nop			
    bb46:	03 43       	nop			
    bb48:	03 43       	nop			
    bb4a:	03 43       	nop			
    bb4c:	03 43       	nop			
    bb4e:	03 43       	nop			
    bb50:	03 43       	nop			
    bb52:	03 43       	nop			
    bb54:	03 43       	nop			
    bb56:	03 43       	nop			
    bb58:	03 43       	nop			
    bb5a:	03 43       	nop			
    bb5c:	03 43       	nop			
    bb5e:	03 43       	nop			
    bb60:	03 43       	nop			
    bb62:	03 43       	nop			
    bb64:	03 43       	nop			
    bb66:	03 43       	nop			
    bb68:	03 43       	nop			
    bb6a:	03 43       	nop			
    bb6c:	03 43       	nop			
    bb6e:	03 43       	nop			
    bb70:	03 43       	nop			
    bb72:	03 43       	nop			
    bb74:	03 43       	nop			
    bb76:	03 43       	nop			
    bb78:	03 43       	nop			
    bb7a:	03 43       	nop			
    bb7c:	03 43       	nop			
    bb7e:	03 43       	nop			
    bb80:	03 43       	nop			
    bb82:	03 43       	nop			
    bb84:	03 43       	nop			
    bb86:	03 43       	nop			
    bb88:	03 43       	nop			
    bb8a:	03 43       	nop			
    bb8c:	03 43       	nop			
    bb8e:	03 43       	nop			
    bb90:	03 43       	nop			
    bb92:	03 43       	nop			
    bb94:	03 43       	nop			
    bb96:	03 43       	nop			
    bb98:	03 43       	nop			
    bb9a:	03 43       	nop			
    bb9c:	03 43       	nop			
    bb9e:	03 43       	nop			
    bba0:	03 43       	nop			
    bba2:	03 43       	nop			
    bba4:	03 43       	nop			
    bba6:	03 43       	nop			
    bba8:	03 43       	nop			
    bbaa:	03 43       	nop			
    bbac:	03 43       	nop			
    bbae:	03 43       	nop			
    bbb0:	03 43       	nop			
    bbb2:	03 43       	nop			
    bbb4:	03 43       	nop			
    bbb6:	03 43       	nop			
    bbb8:	03 43       	nop			
    bbba:	03 43       	nop			
    bbbc:	03 43       	nop			
    bbbe:	03 43       	nop			
    bbc0:	03 43       	nop			
    bbc2:	03 43       	nop			
    bbc4:	03 43       	nop			
    bbc6:	03 43       	nop			
    bbc8:	03 43       	nop			
    bbca:	03 43       	nop			
    bbcc:	03 43       	nop			
    bbce:	03 43       	nop			
    bbd0:	03 43       	nop			
    bbd2:	03 43       	nop			
    bbd4:	03 43       	nop			
    bbd6:	03 43       	nop			
    bbd8:	03 43       	nop			
    bbda:	03 43       	nop			
    bbdc:	03 43       	nop			
    bbde:	03 43       	nop			
    bbe0:	03 43       	nop			
    bbe2:	03 43       	nop			
    bbe4:	03 43       	nop			
    bbe6:	03 43       	nop			
    bbe8:	03 43       	nop			
    bbea:	03 43       	nop			
    bbec:	03 43       	nop			
    bbee:	03 43       	nop			
    bbf0:	03 43       	nop			
    bbf2:	03 43       	nop			
    bbf4:	03 43       	nop			
    bbf6:	03 43       	nop			
    bbf8:	03 43       	nop			
    bbfa:	03 43       	nop			
    bbfc:	03 43       	nop			
    bbfe:	03 43       	nop			
    bc00:	03 43       	nop			
    bc02:	03 43       	nop			
    bc04:	03 43       	nop			
    bc06:	03 43       	nop			
    bc08:	03 43       	nop			
    bc0a:	03 43       	nop			
    bc0c:	03 43       	nop			
    bc0e:	03 43       	nop			
    bc10:	03 43       	nop			
    bc12:	03 43       	nop			
    bc14:	03 43       	nop			
    bc16:	03 43       	nop			
    bc18:	03 43       	nop			
    bc1a:	03 43       	nop			
    bc1c:	03 43       	nop			
    bc1e:	03 43       	nop			
    bc20:	03 43       	nop			
    bc22:	03 43       	nop			
    bc24:	03 43       	nop			
    bc26:	03 43       	nop			
    bc28:	03 43       	nop			
    bc2a:	03 43       	nop			
    bc2c:	03 43       	nop			
    bc2e:	03 43       	nop			
    bc30:	03 43       	nop			
    bc32:	03 43       	nop			
    bc34:	03 43       	nop			
    bc36:	03 43       	nop			
    bc38:	03 43       	nop			
    bc3a:	03 43       	nop			
    bc3c:	03 43       	nop			
    bc3e:	03 43       	nop			
    bc40:	03 43       	nop			
    bc42:	03 43       	nop			
    bc44:	03 43       	nop			
    bc46:	03 43       	nop			
    bc48:	03 43       	nop			
    bc4a:	03 43       	nop			
    bc4c:	03 43       	nop			
    bc4e:	03 43       	nop			
    bc50:	03 43       	nop			
    bc52:	03 43       	nop			
    bc54:	03 43       	nop			
    bc56:	03 43       	nop			
    bc58:	03 43       	nop			
    bc5a:	03 43       	nop			
    bc5c:	03 43       	nop			
    bc5e:	03 43       	nop			
    bc60:	03 43       	nop			
    bc62:	03 43       	nop			
    bc64:	03 43       	nop			
    bc66:	03 43       	nop			
    bc68:	03 43       	nop			
    bc6a:	03 43       	nop			
    bc6c:	03 43       	nop			
    bc6e:	03 43       	nop			
    bc70:	03 43       	nop			
    bc72:	03 43       	nop			
    bc74:	03 43       	nop			
    bc76:	03 43       	nop			
    bc78:	03 43       	nop			
    bc7a:	03 43       	nop			
    bc7c:	03 43       	nop			
    bc7e:	03 43       	nop			
    bc80:	03 43       	nop			
    bc82:	03 43       	nop			
    bc84:	03 43       	nop			
    bc86:	03 43       	nop			
    bc88:	03 43       	nop			
    bc8a:	03 43       	nop			
    bc8c:	03 43       	nop			
    bc8e:	03 43       	nop			
    bc90:	03 43       	nop			
    bc92:	03 43       	nop			
    bc94:	03 43       	nop			
    bc96:	03 43       	nop			
    bc98:	03 43       	nop			
    bc9a:	03 43       	nop			
    bc9c:	03 43       	nop			
    bc9e:	03 43       	nop			
    bca0:	03 43       	nop			
    bca2:	03 43       	nop			
    bca4:	03 43       	nop			
    bca6:	03 43       	nop			
    bca8:	03 43       	nop			
    bcaa:	03 43       	nop			
    bcac:	03 43       	nop			
    bcae:	03 43       	nop			
    bcb0:	03 43       	nop			
    bcb2:	03 43       	nop			
    bcb4:	03 43       	nop			
    bcb6:	03 43       	nop			
    bcb8:	03 43       	nop			
    bcba:	03 43       	nop			
    bcbc:	03 43       	nop			
    bcbe:	03 43       	nop			
    bcc0:	03 43       	nop			
    bcc2:	03 43       	nop			
    bcc4:	03 43       	nop			
    bcc6:	03 43       	nop			
    bcc8:	03 43       	nop			
    bcca:	03 43       	nop			
    bccc:	03 43       	nop			
    bcce:	03 43       	nop			
    bcd0:	03 43       	nop			
    bcd2:	03 43       	nop			
    bcd4:	03 43       	nop			
    bcd6:	03 43       	nop			
    bcd8:	03 43       	nop			
    bcda:	03 43       	nop			
    bcdc:	03 43       	nop			
    bcde:	03 43       	nop			
    bce0:	03 43       	nop			
    bce2:	03 43       	nop			
    bce4:	03 43       	nop			
    bce6:	03 43       	nop			
    bce8:	03 43       	nop			
    bcea:	03 43       	nop			
    bcec:	03 43       	nop			
    bcee:	03 43       	nop			
    bcf0:	03 43       	nop			
    bcf2:	03 43       	nop			
    bcf4:	03 43       	nop			
    bcf6:	03 43       	nop			
    bcf8:	03 43       	nop			
    bcfa:	03 43       	nop			
    bcfc:	03 43       	nop			
    bcfe:	03 43       	nop			
    bd00:	03 43       	nop			
    bd02:	03 43       	nop			
    bd04:	03 43       	nop			
    bd06:	03 43       	nop			
    bd08:	03 43       	nop			
    bd0a:	03 43       	nop			
    bd0c:	03 43       	nop			
    bd0e:	03 43       	nop			
    bd10:	03 43       	nop			
    bd12:	03 43       	nop			
    bd14:	03 43       	nop			
    bd16:	03 43       	nop			
    bd18:	03 43       	nop			
    bd1a:	03 43       	nop			
    bd1c:	03 43       	nop			
    bd1e:	03 43       	nop			
    bd20:	03 43       	nop			
    bd22:	03 43       	nop			
    bd24:	03 43       	nop			
    bd26:	03 43       	nop			
    bd28:	03 43       	nop			
    bd2a:	03 43       	nop			
    bd2c:	03 43       	nop			
    bd2e:	03 43       	nop			
    bd30:	03 43       	nop			
    bd32:	03 43       	nop			
    bd34:	03 43       	nop			
    bd36:	03 43       	nop			
    bd38:	03 43       	nop			
    bd3a:	03 43       	nop			
    bd3c:	03 43       	nop			
    bd3e:	03 43       	nop			
    bd40:	03 43       	nop			
    bd42:	03 43       	nop			
    bd44:	03 43       	nop			
    bd46:	03 43       	nop			
    bd48:	03 43       	nop			
    bd4a:	03 43       	nop			
    bd4c:	03 43       	nop			
    bd4e:	03 43       	nop			
    bd50:	03 43       	nop			
    bd52:	03 43       	nop			
    bd54:	03 43       	nop			
    bd56:	03 43       	nop			
    bd58:	03 43       	nop			
    bd5a:	03 43       	nop			
    bd5c:	03 43       	nop			
    bd5e:	03 43       	nop			
    bd60:	03 43       	nop			
    bd62:	03 43       	nop			
    bd64:	03 43       	nop			
    bd66:	03 43       	nop			
    bd68:	03 43       	nop			
    bd6a:	03 43       	nop			
    bd6c:	03 43       	nop			
    bd6e:	03 43       	nop			
    bd70:	03 43       	nop			
    bd72:	03 43       	nop			
    bd74:	03 43       	nop			
    bd76:	03 43       	nop			
    bd78:	03 43       	nop			
    bd7a:	03 43       	nop			
    bd7c:	03 43       	nop			
    bd7e:	03 43       	nop			
    bd80:	03 43       	nop			
    bd82:	03 43       	nop			
    bd84:	03 43       	nop			
    bd86:	03 43       	nop			
    bd88:	03 43       	nop			
    bd8a:	03 43       	nop			
    bd8c:	03 43       	nop			
    bd8e:	03 43       	nop			
    bd90:	03 43       	nop			
    bd92:	03 43       	nop			
    bd94:	03 43       	nop			
    bd96:	03 43       	nop			
    bd98:	03 43       	nop			
    bd9a:	03 43       	nop			
    bd9c:	03 43       	nop			
    bd9e:	03 43       	nop			
    bda0:	03 43       	nop			
    bda2:	03 43       	nop			
    bda4:	03 43       	nop			
    bda6:	03 43       	nop			
    bda8:	03 43       	nop			
    bdaa:	03 43       	nop			
    bdac:	03 43       	nop			
    bdae:	03 43       	nop			
    bdb0:	03 43       	nop			
    bdb2:	03 43       	nop			
    bdb4:	03 43       	nop			
    bdb6:	03 43       	nop			
    bdb8:	03 43       	nop			
    bdba:	03 43       	nop			
    bdbc:	03 43       	nop			
    bdbe:	03 43       	nop			
    bdc0:	03 43       	nop			
    bdc2:	03 43       	nop			
    bdc4:	03 43       	nop			
    bdc6:	03 43       	nop			
    bdc8:	03 43       	nop			
    bdca:	03 43       	nop			
    bdcc:	03 43       	nop			
    bdce:	03 43       	nop			
    bdd0:	03 43       	nop			
    bdd2:	03 43       	nop			
    bdd4:	03 43       	nop			
    bdd6:	03 43       	nop			
    bdd8:	03 43       	nop			
    bdda:	03 43       	nop			
    bddc:	03 43       	nop			
    bdde:	03 43       	nop			
    bde0:	03 43       	nop			
    bde2:	03 43       	nop			
    bde4:	03 43       	nop			
    bde6:	03 43       	nop			
    bde8:	03 43       	nop			
    bdea:	03 43       	nop			
    bdec:	03 43       	nop			
    bdee:	03 43       	nop			
    bdf0:	03 43       	nop			
    bdf2:	03 43       	nop			
    bdf4:	03 43       	nop			
    bdf6:	03 43       	nop			
    bdf8:	03 43       	nop			
    bdfa:	03 43       	nop			
    bdfc:	03 43       	nop			
    bdfe:	03 43       	nop			
    be00:	03 43       	nop			
    be02:	03 43       	nop			
    be04:	03 43       	nop			
    be06:	03 43       	nop			
    be08:	03 43       	nop			
    be0a:	03 43       	nop			
    be0c:	03 43       	nop			
    be0e:	03 43       	nop			
    be10:	03 43       	nop			
    be12:	03 43       	nop			
    be14:	03 43       	nop			
    be16:	03 43       	nop			
    be18:	03 43       	nop			
    be1a:	03 43       	nop			
    be1c:	03 43       	nop			
    be1e:	03 43       	nop			
    be20:	03 43       	nop			
    be22:	03 43       	nop			
    be24:	03 43       	nop			
    be26:	03 43       	nop			
    be28:	03 43       	nop			
    be2a:	03 43       	nop			
    be2c:	03 43       	nop			
    be2e:	03 43       	nop			
    be30:	03 43       	nop			
    be32:	03 43       	nop			
    be34:	03 43       	nop			
    be36:	03 43       	nop			
    be38:	03 43       	nop			
    be3a:	03 43       	nop			
    be3c:	03 43       	nop			
    be3e:	03 43       	nop			
    be40:	03 43       	nop			
    be42:	03 43       	nop			
    be44:	03 43       	nop			
    be46:	03 43       	nop			
    be48:	03 43       	nop			
    be4a:	03 43       	nop			
    be4c:	03 43       	nop			
    be4e:	03 43       	nop			
    be50:	03 43       	nop			
    be52:	03 43       	nop			
    be54:	03 43       	nop			
    be56:	03 43       	nop			
    be58:	03 43       	nop			
    be5a:	03 43       	nop			
    be5c:	03 43       	nop			
    be5e:	03 43       	nop			
    be60:	03 43       	nop			
    be62:	03 43       	nop			
    be64:	03 43       	nop			
    be66:	03 43       	nop			
    be68:	03 43       	nop			
    be6a:	03 43       	nop			
    be6c:	03 43       	nop			
    be6e:	03 43       	nop			
    be70:	03 43       	nop			
    be72:	03 43       	nop			
    be74:	03 43       	nop			
    be76:	03 43       	nop			
    be78:	03 43       	nop			
    be7a:	03 43       	nop			
    be7c:	03 43       	nop			
    be7e:	03 43       	nop			
    be80:	03 43       	nop			
    be82:	03 43       	nop			
    be84:	03 43       	nop			
    be86:	03 43       	nop			
    be88:	03 43       	nop			
    be8a:	03 43       	nop			
    be8c:	03 43       	nop			
    be8e:	03 43       	nop			
    be90:	03 43       	nop			
    be92:	03 43       	nop			
    be94:	03 43       	nop			
    be96:	03 43       	nop			
    be98:	03 43       	nop			
    be9a:	03 43       	nop			
    be9c:	03 43       	nop			
    be9e:	03 43       	nop			
    bea0:	03 43       	nop			
    bea2:	03 43       	nop			
    bea4:	03 43       	nop			
    bea6:	03 43       	nop			
    bea8:	03 43       	nop			
    beaa:	03 43       	nop			
    beac:	03 43       	nop			
    beae:	03 43       	nop			
    beb0:	03 43       	nop			
    beb2:	03 43       	nop			
    beb4:	03 43       	nop			
    beb6:	03 43       	nop			
    beb8:	03 43       	nop			
    beba:	03 43       	nop			
    bebc:	03 43       	nop			
    bebe:	03 43       	nop			
    bec0:	03 43       	nop			
    bec2:	03 43       	nop			
    bec4:	03 43       	nop			
    bec6:	03 43       	nop			
    bec8:	03 43       	nop			
    beca:	03 43       	nop			
    becc:	03 43       	nop			
    bece:	03 43       	nop			
    bed0:	03 43       	nop			
    bed2:	03 43       	nop			
    bed4:	03 43       	nop			
    bed6:	03 43       	nop			
    bed8:	03 43       	nop			
    beda:	03 43       	nop			
    bedc:	03 43       	nop			
    bede:	03 43       	nop			
    bee0:	03 43       	nop			
    bee2:	03 43       	nop			
    bee4:	03 43       	nop			
    bee6:	03 43       	nop			
    bee8:	03 43       	nop			
    beea:	03 43       	nop			
    beec:	03 43       	nop			
    beee:	03 43       	nop			
    bef0:	03 43       	nop			
    bef2:	03 43       	nop			
    bef4:	03 43       	nop			
    bef6:	03 43       	nop			
    bef8:	03 43       	nop			
    befa:	03 43       	nop			
    befc:	03 43       	nop			
    befe:	03 43       	nop			
    bf00:	03 43       	nop			
    bf02:	03 43       	nop			
    bf04:	03 43       	nop			
    bf06:	03 43       	nop			
    bf08:	03 43       	nop			
    bf0a:	03 43       	nop			
    bf0c:	03 43       	nop			
    bf0e:	03 43       	nop			
    bf10:	03 43       	nop			
    bf12:	03 43       	nop			
    bf14:	03 43       	nop			
    bf16:	03 43       	nop			
    bf18:	03 43       	nop			
    bf1a:	03 43       	nop			
    bf1c:	03 43       	nop			
    bf1e:	03 43       	nop			
    bf20:	03 43       	nop			
    bf22:	03 43       	nop			
    bf24:	03 43       	nop			
    bf26:	03 43       	nop			
    bf28:	03 43       	nop			
    bf2a:	03 43       	nop			
    bf2c:	03 43       	nop			
    bf2e:	03 43       	nop			
    bf30:	03 43       	nop			
    bf32:	03 43       	nop			
    bf34:	03 43       	nop			
    bf36:	03 43       	nop			
    bf38:	03 43       	nop			
    bf3a:	03 43       	nop			
    bf3c:	03 43       	nop			
    bf3e:	03 43       	nop			
    bf40:	03 43       	nop			
    bf42:	03 43       	nop			
    bf44:	03 43       	nop			
    bf46:	03 43       	nop			
    bf48:	03 43       	nop			
    bf4a:	03 43       	nop			
    bf4c:	03 43       	nop			
    bf4e:	03 43       	nop			
    bf50:	03 43       	nop			
    bf52:	03 43       	nop			
    bf54:	03 43       	nop			
    bf56:	03 43       	nop			
    bf58:	03 43       	nop			
    bf5a:	03 43       	nop			
    bf5c:	03 43       	nop			
    bf5e:	03 43       	nop			
    bf60:	03 43       	nop			
    bf62:	03 43       	nop			
    bf64:	03 43       	nop			
    bf66:	03 43       	nop			
    bf68:	03 43       	nop			
    bf6a:	03 43       	nop			
    bf6c:	03 43       	nop			
    bf6e:	03 43       	nop			
    bf70:	03 43       	nop			
    bf72:	03 43       	nop			
    bf74:	03 43       	nop			
    bf76:	03 43       	nop			
    bf78:	03 43       	nop			
    bf7a:	03 43       	nop			
    bf7c:	03 43       	nop			
    bf7e:	03 43       	nop			
    bf80:	03 43       	nop			
    bf82:	03 43       	nop			
    bf84:	03 43       	nop			
    bf86:	03 43       	nop			
    bf88:	03 43       	nop			
    bf8a:	03 43       	nop			
    bf8c:	03 43       	nop			
    bf8e:	03 43       	nop			
    bf90:	03 43       	nop			
    bf92:	03 43       	nop			
    bf94:	03 43       	nop			
    bf96:	03 43       	nop			
    bf98:	03 43       	nop			
    bf9a:	03 43       	nop			
    bf9c:	03 43       	nop			
    bf9e:	03 43       	nop			
    bfa0:	03 43       	nop			
    bfa2:	03 43       	nop			
    bfa4:	03 43       	nop			
    bfa6:	03 43       	nop			
    bfa8:	03 43       	nop			
    bfaa:	03 43       	nop			
    bfac:	03 43       	nop			
    bfae:	03 43       	nop			
    bfb0:	03 43       	nop			
    bfb2:	03 43       	nop			
    bfb4:	03 43       	nop			
    bfb6:	03 43       	nop			
    bfb8:	03 43       	nop			
    bfba:	03 43       	nop			
    bfbc:	03 43       	nop			
    bfbe:	03 43       	nop			
    bfc0:	03 43       	nop			
    bfc2:	03 43       	nop			
    bfc4:	03 43       	nop			
    bfc6:	03 43       	nop			
    bfc8:	03 43       	nop			
    bfca:	03 43       	nop			
    bfcc:	03 43       	nop			
    bfce:	03 43       	nop			
    bfd0:	03 43       	nop			
    bfd2:	03 43       	nop			
    bfd4:	03 43       	nop			
    bfd6:	03 43       	nop			
    bfd8:	03 43       	nop			
    bfda:	03 43       	nop			
    bfdc:	03 43       	nop			
    bfde:	03 43       	nop			
    bfe0:	03 43       	nop			
    bfe2:	03 43       	nop			
    bfe4:	03 43       	nop			
    bfe6:	03 43       	nop			
    bfe8:	03 43       	nop			
    bfea:	03 43       	nop			
    bfec:	03 43       	nop			
    bfee:	03 43       	nop			
    bff0:	03 43       	nop			
    bff2:	03 43       	nop			
    bff4:	03 43       	nop			
    bff6:	03 43       	nop			
    bff8:	03 43       	nop			
    bffa:	03 43       	nop			
    bffc:	03 43       	nop			
    bffe:	03 43       	nop			
    c000:	03 43       	nop			
    c002:	03 43       	nop			
    c004:	03 43       	nop			
    c006:	03 43       	nop			
    c008:	03 43       	nop			
    c00a:	03 43       	nop			
    c00c:	03 43       	nop			
    c00e:	03 43       	nop			
    c010:	03 43       	nop			
    c012:	03 43       	nop			
    c014:	03 43       	nop			
    c016:	03 43       	nop			
    c018:	03 43       	nop			
    c01a:	03 43       	nop			
    c01c:	03 43       	nop			
    c01e:	03 43       	nop			
    c020:	03 43       	nop			
    c022:	03 43       	nop			
    c024:	03 43       	nop			
    c026:	03 43       	nop			
    c028:	03 43       	nop			
    c02a:	03 43       	nop			
    c02c:	03 43       	nop			
    c02e:	03 43       	nop			
    c030:	03 43       	nop			
    c032:	03 43       	nop			
    c034:	03 43       	nop			
    c036:	03 43       	nop			
    c038:	03 43       	nop			
    c03a:	03 43       	nop			
    c03c:	03 43       	nop			
    c03e:	03 43       	nop			
    c040:	03 43       	nop			
    c042:	03 43       	nop			
    c044:	03 43       	nop			
    c046:	03 43       	nop			
    c048:	03 43       	nop			
    c04a:	03 43       	nop			
    c04c:	03 43       	nop			
    c04e:	03 43       	nop			
    c050:	03 43       	nop			
    c052:	03 43       	nop			
    c054:	03 43       	nop			
    c056:	03 43       	nop			
    c058:	03 43       	nop			
    c05a:	03 43       	nop			
    c05c:	03 43       	nop			
    c05e:	03 43       	nop			
    c060:	03 43       	nop			
    c062:	03 43       	nop			
    c064:	03 43       	nop			
    c066:	03 43       	nop			
    c068:	03 43       	nop			
    c06a:	03 43       	nop			
    c06c:	03 43       	nop			
    c06e:	03 43       	nop			
    c070:	03 43       	nop			
    c072:	03 43       	nop			
    c074:	03 43       	nop			
    c076:	03 43       	nop			
    c078:	03 43       	nop			
    c07a:	03 43       	nop			
    c07c:	03 43       	nop			
    c07e:	03 43       	nop			
    c080:	03 43       	nop			
    c082:	03 43       	nop			
    c084:	03 43       	nop			
    c086:	03 43       	nop			
    c088:	03 43       	nop			
    c08a:	03 43       	nop			
    c08c:	03 43       	nop			
    c08e:	03 43       	nop			
    c090:	03 43       	nop			
    c092:	03 43       	nop			
    c094:	03 43       	nop			
    c096:	03 43       	nop			
    c098:	03 43       	nop			
    c09a:	03 43       	nop			
    c09c:	03 43       	nop			
    c09e:	03 43       	nop			
    c0a0:	03 43       	nop			
    c0a2:	03 43       	nop			
    c0a4:	03 43       	nop			
    c0a6:	03 43       	nop			
    c0a8:	03 43       	nop			
    c0aa:	03 43       	nop			
    c0ac:	03 43       	nop			
    c0ae:	03 43       	nop			
    c0b0:	03 43       	nop			
    c0b2:	03 43       	nop			
    c0b4:	03 43       	nop			
    c0b6:	03 43       	nop			
    c0b8:	03 43       	nop			
    c0ba:	03 43       	nop			
    c0bc:	03 43       	nop			
    c0be:	03 43       	nop			
    c0c0:	03 43       	nop			
    c0c2:	03 43       	nop			
    c0c4:	03 43       	nop			
    c0c6:	03 43       	nop			
    c0c8:	03 43       	nop			
    c0ca:	03 43       	nop			
    c0cc:	03 43       	nop			
    c0ce:	03 43       	nop			
    c0d0:	03 43       	nop			
    c0d2:	03 43       	nop			
    c0d4:	03 43       	nop			
    c0d6:	03 43       	nop			
    c0d8:	03 43       	nop			
    c0da:	03 43       	nop			
    c0dc:	03 43       	nop			
    c0de:	03 43       	nop			
    c0e0:	03 43       	nop			
    c0e2:	03 43       	nop			
    c0e4:	03 43       	nop			
    c0e6:	03 43       	nop			
    c0e8:	03 43       	nop			
    c0ea:	03 43       	nop			
    c0ec:	03 43       	nop			
    c0ee:	03 43       	nop			
    c0f0:	03 43       	nop			
    c0f2:	03 43       	nop			
    c0f4:	03 43       	nop			
    c0f6:	03 43       	nop			
    c0f8:	03 43       	nop			
    c0fa:	03 43       	nop			
    c0fc:	03 43       	nop			
    c0fe:	03 43       	nop			
    c100:	03 43       	nop			
    c102:	03 43       	nop			
    c104:	03 43       	nop			
    c106:	03 43       	nop			
    c108:	03 43       	nop			
    c10a:	03 43       	nop			
    c10c:	03 43       	nop			
    c10e:	03 43       	nop			
    c110:	03 43       	nop			
    c112:	03 43       	nop			
    c114:	03 43       	nop			
    c116:	03 43       	nop			
    c118:	03 43       	nop			
    c11a:	03 43       	nop			
    c11c:	03 43       	nop			
    c11e:	03 43       	nop			
    c120:	03 43       	nop			
    c122:	03 43       	nop			
    c124:	03 43       	nop			
    c126:	03 43       	nop			
    c128:	03 43       	nop			
    c12a:	03 43       	nop			
    c12c:	03 43       	nop			
    c12e:	03 43       	nop			
    c130:	03 43       	nop			
    c132:	03 43       	nop			
    c134:	03 43       	nop			
    c136:	03 43       	nop			
    c138:	03 43       	nop			
    c13a:	03 43       	nop			
    c13c:	03 43       	nop			
    c13e:	03 43       	nop			
    c140:	03 43       	nop			
    c142:	03 43       	nop			
    c144:	03 43       	nop			
    c146:	03 43       	nop			
    c148:	03 43       	nop			
    c14a:	03 43       	nop			
    c14c:	03 43       	nop			
    c14e:	03 43       	nop			
    c150:	03 43       	nop			
    c152:	03 43       	nop			
    c154:	03 43       	nop			
    c156:	03 43       	nop			
    c158:	03 43       	nop			
    c15a:	03 43       	nop			
    c15c:	03 43       	nop			
    c15e:	03 43       	nop			
    c160:	03 43       	nop			
    c162:	03 43       	nop			
    c164:	03 43       	nop			
    c166:	03 43       	nop			
    c168:	03 43       	nop			
    c16a:	03 43       	nop			
    c16c:	03 43       	nop			
    c16e:	03 43       	nop			
    c170:	03 43       	nop			
    c172:	03 43       	nop			
    c174:	03 43       	nop			
    c176:	03 43       	nop			
    c178:	03 43       	nop			
    c17a:	03 43       	nop			
    c17c:	03 43       	nop			
    c17e:	03 43       	nop			
    c180:	03 43       	nop			
    c182:	03 43       	nop			
    c184:	03 43       	nop			
    c186:	03 43       	nop			
    c188:	03 43       	nop			
    c18a:	03 43       	nop			
    c18c:	03 43       	nop			
    c18e:	03 43       	nop			
    c190:	03 43       	nop			
    c192:	03 43       	nop			
    c194:	03 43       	nop			
    c196:	03 43       	nop			
    c198:	03 43       	nop			
    c19a:	03 43       	nop			
    c19c:	03 43       	nop			
    c19e:	03 43       	nop			
    c1a0:	03 43       	nop			
    c1a2:	03 43       	nop			
    c1a4:	03 43       	nop			
    c1a6:	03 43       	nop			
    c1a8:	03 43       	nop			
    c1aa:	03 43       	nop			
    c1ac:	03 43       	nop			
    c1ae:	03 43       	nop			
    c1b0:	03 43       	nop			
    c1b2:	03 43       	nop			
    c1b4:	03 43       	nop			
    c1b6:	03 43       	nop			
    c1b8:	03 43       	nop			
    c1ba:	03 43       	nop			
    c1bc:	03 43       	nop			
    c1be:	03 43       	nop			
    c1c0:	03 43       	nop			
    c1c2:	03 43       	nop			
    c1c4:	03 43       	nop			
    c1c6:	03 43       	nop			
    c1c8:	03 43       	nop			
    c1ca:	03 43       	nop			
    c1cc:	03 43       	nop			
    c1ce:	03 43       	nop			
    c1d0:	03 43       	nop			
    c1d2:	03 43       	nop			
    c1d4:	03 43       	nop			
    c1d6:	03 43       	nop			
    c1d8:	03 43       	nop			
    c1da:	03 43       	nop			
    c1dc:	03 43       	nop			
    c1de:	03 43       	nop			
    c1e0:	03 43       	nop			
    c1e2:	03 43       	nop			
    c1e4:	03 43       	nop			
    c1e6:	03 43       	nop			
    c1e8:	03 43       	nop			
    c1ea:	03 43       	nop			
    c1ec:	03 43       	nop			
    c1ee:	03 43       	nop			
    c1f0:	03 43       	nop			
    c1f2:	03 43       	nop			
    c1f4:	03 43       	nop			
    c1f6:	03 43       	nop			
    c1f8:	03 43       	nop			
    c1fa:	03 43       	nop			
    c1fc:	03 43       	nop			
    c1fe:	03 43       	nop			
    c200:	03 43       	nop			
    c202:	03 43       	nop			
    c204:	03 43       	nop			
    c206:	03 43       	nop			
    c208:	03 43       	nop			
    c20a:	03 43       	nop			
    c20c:	03 43       	nop			
    c20e:	03 43       	nop			
    c210:	03 43       	nop			
    c212:	03 43       	nop			
    c214:	03 43       	nop			
    c216:	03 43       	nop			
    c218:	03 43       	nop			
    c21a:	03 43       	nop			
    c21c:	03 43       	nop			
    c21e:	03 43       	nop			
    c220:	03 43       	nop			
    c222:	03 43       	nop			
    c224:	03 43       	nop			
    c226:	03 43       	nop			
    c228:	03 43       	nop			
    c22a:	03 43       	nop			
    c22c:	03 43       	nop			
    c22e:	03 43       	nop			
    c230:	03 43       	nop			
    c232:	03 43       	nop			
    c234:	03 43       	nop			
    c236:	03 43       	nop			
    c238:	03 43       	nop			
    c23a:	03 43       	nop			
    c23c:	03 43       	nop			
    c23e:	03 43       	nop			
    c240:	03 43       	nop			
    c242:	03 43       	nop			
    c244:	03 43       	nop			
    c246:	03 43       	nop			
    c248:	03 43       	nop			
    c24a:	03 43       	nop			
    c24c:	03 43       	nop			
    c24e:	03 43       	nop			
    c250:	03 43       	nop			
    c252:	03 43       	nop			
    c254:	03 43       	nop			
    c256:	03 43       	nop			
    c258:	03 43       	nop			
    c25a:	03 43       	nop			
    c25c:	03 43       	nop			
    c25e:	03 43       	nop			
    c260:	03 43       	nop			
    c262:	03 43       	nop			
    c264:	03 43       	nop			
    c266:	03 43       	nop			
    c268:	03 43       	nop			
    c26a:	03 43       	nop			
    c26c:	03 43       	nop			
    c26e:	03 43       	nop			
    c270:	03 43       	nop			
    c272:	03 43       	nop			
    c274:	03 43       	nop			
    c276:	03 43       	nop			
    c278:	03 43       	nop			
    c27a:	03 43       	nop			
    c27c:	03 43       	nop			
    c27e:	03 43       	nop			
    c280:	03 43       	nop			
    c282:	03 43       	nop			
    c284:	03 43       	nop			
    c286:	03 43       	nop			
    c288:	03 43       	nop			
    c28a:	03 43       	nop			
    c28c:	03 43       	nop			
    c28e:	03 43       	nop			
    c290:	03 43       	nop			
    c292:	03 43       	nop			
    c294:	03 43       	nop			
    c296:	03 43       	nop			
    c298:	03 43       	nop			
    c29a:	03 43       	nop			
    c29c:	03 43       	nop			
    c29e:	03 43       	nop			
    c2a0:	03 43       	nop			
    c2a2:	03 43       	nop			
    c2a4:	03 43       	nop			
    c2a6:	03 43       	nop			
    c2a8:	03 43       	nop			
    c2aa:	03 43       	nop			
    c2ac:	03 43       	nop			
    c2ae:	03 43       	nop			
    c2b0:	03 43       	nop			
    c2b2:	03 43       	nop			
    c2b4:	03 43       	nop			
    c2b6:	03 43       	nop			
    c2b8:	03 43       	nop			
    c2ba:	03 43       	nop			
    c2bc:	03 43       	nop			
    c2be:	03 43       	nop			
    c2c0:	03 43       	nop			
    c2c2:	03 43       	nop			
    c2c4:	03 43       	nop			
    c2c6:	03 43       	nop			
    c2c8:	03 43       	nop			
    c2ca:	03 43       	nop			
    c2cc:	03 43       	nop			
    c2ce:	03 43       	nop			
    c2d0:	03 43       	nop			
    c2d2:	03 43       	nop			
    c2d4:	03 43       	nop			
    c2d6:	03 43       	nop			
    c2d8:	03 43       	nop			
    c2da:	03 43       	nop			
    c2dc:	03 43       	nop			
    c2de:	03 43       	nop			
    c2e0:	03 43       	nop			
    c2e2:	03 43       	nop			
    c2e4:	03 43       	nop			
    c2e6:	03 43       	nop			
    c2e8:	03 43       	nop			
    c2ea:	03 43       	nop			
    c2ec:	03 43       	nop			
    c2ee:	03 43       	nop			
    c2f0:	03 43       	nop			
    c2f2:	03 43       	nop			
    c2f4:	03 43       	nop			
    c2f6:	03 43       	nop			
    c2f8:	03 43       	nop			
    c2fa:	03 43       	nop			
    c2fc:	03 43       	nop			
    c2fe:	03 43       	nop			
    c300:	03 43       	nop			
    c302:	03 43       	nop			
    c304:	03 43       	nop			
    c306:	03 43       	nop			
    c308:	03 43       	nop			
    c30a:	03 43       	nop			
    c30c:	03 43       	nop			
    c30e:	03 43       	nop			
    c310:	03 43       	nop			
    c312:	03 43       	nop			
    c314:	03 43       	nop			
    c316:	03 43       	nop			
    c318:	03 43       	nop			
    c31a:	03 43       	nop			
    c31c:	03 43       	nop			
    c31e:	03 43       	nop			
    c320:	03 43       	nop			
    c322:	03 43       	nop			
    c324:	03 43       	nop			
    c326:	03 43       	nop			
    c328:	03 43       	nop			
    c32a:	03 43       	nop			
    c32c:	03 43       	nop			
    c32e:	03 43       	nop			
    c330:	03 43       	nop			
    c332:	03 43       	nop			
    c334:	03 43       	nop			
    c336:	03 43       	nop			
    c338:	03 43       	nop			
    c33a:	03 43       	nop			
    c33c:	03 43       	nop			
    c33e:	03 43       	nop			
    c340:	03 43       	nop			
    c342:	03 43       	nop			
    c344:	03 43       	nop			
    c346:	03 43       	nop			
    c348:	03 43       	nop			
    c34a:	03 43       	nop			
    c34c:	03 43       	nop			
    c34e:	03 43       	nop			
    c350:	03 43       	nop			
    c352:	03 43       	nop			
    c354:	03 43       	nop			
    c356:	03 43       	nop			
    c358:	03 43       	nop			
    c35a:	03 43       	nop			
    c35c:	03 43       	nop			
    c35e:	03 43       	nop			
    c360:	03 43       	nop			
    c362:	03 43       	nop			
    c364:	03 43       	nop			
    c366:	03 43       	nop			
    c368:	03 43       	nop			
    c36a:	03 43       	nop			
    c36c:	03 43       	nop			
    c36e:	03 43       	nop			
    c370:	03 43       	nop			
    c372:	03 43       	nop			
    c374:	03 43       	nop			
    c376:	03 43       	nop			
    c378:	03 43       	nop			
    c37a:	03 43       	nop			
    c37c:	03 43       	nop			
    c37e:	03 43       	nop			
    c380:	03 43       	nop			
    c382:	03 43       	nop			
    c384:	03 43       	nop			
    c386:	03 43       	nop			
    c388:	03 43       	nop			
    c38a:	03 43       	nop			
    c38c:	03 43       	nop			
    c38e:	03 43       	nop			
    c390:	03 43       	nop			
    c392:	03 43       	nop			
    c394:	03 43       	nop			
    c396:	03 43       	nop			
    c398:	03 43       	nop			
    c39a:	03 43       	nop			
    c39c:	03 43       	nop			
    c39e:	03 43       	nop			
    c3a0:	03 43       	nop			
    c3a2:	03 43       	nop			
    c3a4:	03 43       	nop			
    c3a6:	03 43       	nop			
    c3a8:	03 43       	nop			
    c3aa:	03 43       	nop			
    c3ac:	03 43       	nop			
    c3ae:	03 43       	nop			
    c3b0:	03 43       	nop			
    c3b2:	03 43       	nop			
    c3b4:	03 43       	nop			
    c3b6:	03 43       	nop			
    c3b8:	03 43       	nop			
    c3ba:	03 43       	nop			
    c3bc:	03 43       	nop			
    c3be:	03 43       	nop			
    c3c0:	03 43       	nop			
    c3c2:	03 43       	nop			
    c3c4:	03 43       	nop			
    c3c6:	03 43       	nop			
    c3c8:	03 43       	nop			
    c3ca:	03 43       	nop			
    c3cc:	03 43       	nop			
    c3ce:	03 43       	nop			
    c3d0:	03 43       	nop			
    c3d2:	03 43       	nop			
    c3d4:	03 43       	nop			
    c3d6:	03 43       	nop			
    c3d8:	03 43       	nop			
    c3da:	03 43       	nop			
    c3dc:	03 43       	nop			
    c3de:	03 43       	nop			
    c3e0:	03 43       	nop			
    c3e2:	03 43       	nop			
    c3e4:	03 43       	nop			
    c3e6:	03 43       	nop			
    c3e8:	03 43       	nop			
    c3ea:	03 43       	nop			
    c3ec:	03 43       	nop			
    c3ee:	03 43       	nop			
    c3f0:	03 43       	nop			
    c3f2:	03 43       	nop			
    c3f4:	03 43       	nop			
    c3f6:	03 43       	nop			
    c3f8:	03 43       	nop			
    c3fa:	03 43       	nop			
    c3fc:	03 43       	nop			
    c3fe:	03 43       	nop			
    c400:	03 43       	nop			
    c402:	03 43       	nop			
    c404:	03 43       	nop			
    c406:	03 43       	nop			
    c408:	03 43       	nop			
    c40a:	03 43       	nop			
    c40c:	03 43       	nop			
    c40e:	03 43       	nop			
    c410:	03 43       	nop			
    c412:	03 43       	nop			
    c414:	03 43       	nop			
    c416:	03 43       	nop			
    c418:	03 43       	nop			
    c41a:	03 43       	nop			
    c41c:	03 43       	nop			
    c41e:	03 43       	nop			
    c420:	03 43       	nop			
    c422:	03 43       	nop			
    c424:	03 43       	nop			
    c426:	03 43       	nop			
    c428:	03 43       	nop			
    c42a:	03 43       	nop			
    c42c:	03 43       	nop			
    c42e:	03 43       	nop			
    c430:	03 43       	nop			
    c432:	03 43       	nop			
    c434:	03 43       	nop			
    c436:	03 43       	nop			
    c438:	03 43       	nop			
    c43a:	03 43       	nop			
    c43c:	03 43       	nop			
    c43e:	03 43       	nop			
    c440:	03 43       	nop			
    c442:	03 43       	nop			
    c444:	03 43       	nop			
    c446:	03 43       	nop			
    c448:	03 43       	nop			
    c44a:	03 43       	nop			
    c44c:	03 43       	nop			
    c44e:	03 43       	nop			
    c450:	03 43       	nop			
    c452:	03 43       	nop			
    c454:	03 43       	nop			
    c456:	03 43       	nop			
    c458:	03 43       	nop			
    c45a:	03 43       	nop			
    c45c:	03 43       	nop			
    c45e:	03 43       	nop			
    c460:	03 43       	nop			
    c462:	03 43       	nop			
    c464:	03 43       	nop			
    c466:	03 43       	nop			
    c468:	03 43       	nop			
    c46a:	03 43       	nop			
    c46c:	03 43       	nop			
    c46e:	03 43       	nop			
    c470:	03 43       	nop			
    c472:	03 43       	nop			
    c474:	03 43       	nop			
    c476:	03 43       	nop			
    c478:	03 43       	nop			
    c47a:	03 43       	nop			
    c47c:	03 43       	nop			
    c47e:	03 43       	nop			
    c480:	03 43       	nop			
    c482:	03 43       	nop			
    c484:	03 43       	nop			
    c486:	03 43       	nop			
    c488:	03 43       	nop			
    c48a:	03 43       	nop			
    c48c:	03 43       	nop			
    c48e:	03 43       	nop			
    c490:	03 43       	nop			
    c492:	03 43       	nop			
    c494:	03 43       	nop			
    c496:	03 43       	nop			
    c498:	03 43       	nop			
    c49a:	03 43       	nop			
    c49c:	03 43       	nop			
    c49e:	03 43       	nop			
    c4a0:	03 43       	nop			
    c4a2:	03 43       	nop			
    c4a4:	03 43       	nop			
    c4a6:	03 43       	nop			
    c4a8:	03 43       	nop			
    c4aa:	03 43       	nop			
    c4ac:	03 43       	nop			
    c4ae:	03 43       	nop			
    c4b0:	03 43       	nop			
    c4b2:	03 43       	nop			
    c4b4:	03 43       	nop			
    c4b6:	03 43       	nop			
    c4b8:	03 43       	nop			
    c4ba:	03 43       	nop			
    c4bc:	03 43       	nop			
    c4be:	03 43       	nop			
    c4c0:	03 43       	nop			
    c4c2:	03 43       	nop			
    c4c4:	03 43       	nop			
    c4c6:	03 43       	nop			
    c4c8:	03 43       	nop			
    c4ca:	03 43       	nop			
    c4cc:	03 43       	nop			
    c4ce:	03 43       	nop			
    c4d0:	03 43       	nop			
    c4d2:	03 43       	nop			
    c4d4:	03 43       	nop			
    c4d6:	03 43       	nop			
    c4d8:	03 43       	nop			
    c4da:	03 43       	nop			
    c4dc:	03 43       	nop			
    c4de:	03 43       	nop			
    c4e0:	03 43       	nop			
    c4e2:	03 43       	nop			
    c4e4:	03 43       	nop			
    c4e6:	03 43       	nop			
    c4e8:	03 43       	nop			
    c4ea:	03 43       	nop			
    c4ec:	03 43       	nop			
    c4ee:	03 43       	nop			
    c4f0:	03 43       	nop			
    c4f2:	03 43       	nop			
    c4f4:	03 43       	nop			
    c4f6:	03 43       	nop			
    c4f8:	03 43       	nop			
    c4fa:	03 43       	nop			
    c4fc:	03 43       	nop			
    c4fe:	03 43       	nop			
    c500:	03 43       	nop			
    c502:	03 43       	nop			
    c504:	03 43       	nop			
    c506:	03 43       	nop			
    c508:	03 43       	nop			
    c50a:	03 43       	nop			
    c50c:	03 43       	nop			
    c50e:	03 43       	nop			
    c510:	03 43       	nop			
    c512:	03 43       	nop			
    c514:	03 43       	nop			
    c516:	03 43       	nop			
    c518:	03 43       	nop			
    c51a:	03 43       	nop			
    c51c:	03 43       	nop			
    c51e:	03 43       	nop			
    c520:	03 43       	nop			
    c522:	03 43       	nop			
    c524:	03 43       	nop			
    c526:	03 43       	nop			
    c528:	03 43       	nop			
    c52a:	03 43       	nop			
    c52c:	03 43       	nop			
    c52e:	03 43       	nop			
    c530:	03 43       	nop			
    c532:	03 43       	nop			
    c534:	03 43       	nop			
    c536:	03 43       	nop			
    c538:	03 43       	nop			
    c53a:	03 43       	nop			
    c53c:	03 43       	nop			
    c53e:	03 43       	nop			
    c540:	03 43       	nop			
    c542:	03 43       	nop			
    c544:	03 43       	nop			
    c546:	03 43       	nop			
    c548:	03 43       	nop			
    c54a:	03 43       	nop			
    c54c:	03 43       	nop			
    c54e:	03 43       	nop			
    c550:	03 43       	nop			
    c552:	03 43       	nop			
    c554:	03 43       	nop			
    c556:	03 43       	nop			
    c558:	03 43       	nop			
    c55a:	03 43       	nop			
    c55c:	03 43       	nop			
    c55e:	03 43       	nop			
    c560:	03 43       	nop			
    c562:	03 43       	nop			
    c564:	03 43       	nop			
    c566:	03 43       	nop			
    c568:	03 43       	nop			
    c56a:	03 43       	nop			
    c56c:	03 43       	nop			
    c56e:	03 43       	nop			
    c570:	03 43       	nop			
    c572:	03 43       	nop			
    c574:	03 43       	nop			
    c576:	03 43       	nop			
    c578:	03 43       	nop			
    c57a:	03 43       	nop			
    c57c:	03 43       	nop			
    c57e:	03 43       	nop			
    c580:	03 43       	nop			
    c582:	03 43       	nop			
    c584:	03 43       	nop			
    c586:	03 43       	nop			
    c588:	03 43       	nop			
    c58a:	03 43       	nop			
    c58c:	03 43       	nop			
    c58e:	03 43       	nop			
    c590:	03 43       	nop			
    c592:	03 43       	nop			
    c594:	03 43       	nop			
    c596:	03 43       	nop			
    c598:	03 43       	nop			
    c59a:	03 43       	nop			
    c59c:	03 43       	nop			
    c59e:	03 43       	nop			
    c5a0:	03 43       	nop			
    c5a2:	03 43       	nop			
    c5a4:	03 43       	nop			
    c5a6:	03 43       	nop			
    c5a8:	03 43       	nop			
    c5aa:	03 43       	nop			
    c5ac:	03 43       	nop			
    c5ae:	03 43       	nop			
    c5b0:	03 43       	nop			
    c5b2:	03 43       	nop			
    c5b4:	03 43       	nop			
    c5b6:	03 43       	nop			
    c5b8:	03 43       	nop			
    c5ba:	03 43       	nop			
    c5bc:	03 43       	nop			
    c5be:	03 43       	nop			
    c5c0:	03 43       	nop			
    c5c2:	03 43       	nop			
    c5c4:	03 43       	nop			
    c5c6:	03 43       	nop			
    c5c8:	03 43       	nop			
    c5ca:	03 43       	nop			
    c5cc:	03 43       	nop			
    c5ce:	03 43       	nop			
    c5d0:	03 43       	nop			
    c5d2:	03 43       	nop			
    c5d4:	03 43       	nop			
    c5d6:	03 43       	nop			
    c5d8:	03 43       	nop			
    c5da:	03 43       	nop			
    c5dc:	03 43       	nop			
    c5de:	03 43       	nop			
    c5e0:	03 43       	nop			
    c5e2:	03 43       	nop			
    c5e4:	03 43       	nop			
    c5e6:	03 43       	nop			
    c5e8:	03 43       	nop			
    c5ea:	03 43       	nop			
    c5ec:	03 43       	nop			
    c5ee:	03 43       	nop			
    c5f0:	03 43       	nop			
    c5f2:	03 43       	nop			
    c5f4:	03 43       	nop			
    c5f6:	03 43       	nop			
    c5f8:	03 43       	nop			
    c5fa:	03 43       	nop			
    c5fc:	03 43       	nop			
    c5fe:	03 43       	nop			
    c600:	03 43       	nop			
    c602:	03 43       	nop			
    c604:	03 43       	nop			
    c606:	03 43       	nop			
    c608:	03 43       	nop			
    c60a:	03 43       	nop			
    c60c:	03 43       	nop			
    c60e:	03 43       	nop			
    c610:	03 43       	nop			
    c612:	03 43       	nop			
    c614:	03 43       	nop			
    c616:	03 43       	nop			
    c618:	03 43       	nop			
    c61a:	03 43       	nop			
    c61c:	03 43       	nop			
    c61e:	03 43       	nop			
    c620:	03 43       	nop			
    c622:	03 43       	nop			
    c624:	03 43       	nop			
    c626:	03 43       	nop			
    c628:	03 43       	nop			
    c62a:	03 43       	nop			
    c62c:	03 43       	nop			
    c62e:	03 43       	nop			
    c630:	03 43       	nop			
    c632:	03 43       	nop			
    c634:	03 43       	nop			
    c636:	03 43       	nop			
    c638:	03 43       	nop			
    c63a:	03 43       	nop			
    c63c:	03 43       	nop			
    c63e:	03 43       	nop			
    c640:	03 43       	nop			
    c642:	03 43       	nop			
    c644:	03 43       	nop			
    c646:	03 43       	nop			
    c648:	03 43       	nop			
    c64a:	03 43       	nop			
    c64c:	03 43       	nop			
    c64e:	03 43       	nop			
    c650:	03 43       	nop			
    c652:	03 43       	nop			
    c654:	03 43       	nop			
    c656:	03 43       	nop			
    c658:	03 43       	nop			
    c65a:	03 43       	nop			
    c65c:	03 43       	nop			
    c65e:	03 43       	nop			
    c660:	03 43       	nop			
    c662:	03 43       	nop			
    c664:	03 43       	nop			
    c666:	03 43       	nop			
    c668:	03 43       	nop			
    c66a:	03 43       	nop			
    c66c:	03 43       	nop			
    c66e:	03 43       	nop			
    c670:	03 43       	nop			
    c672:	03 43       	nop			
    c674:	03 43       	nop			
    c676:	03 43       	nop			
    c678:	03 43       	nop			
    c67a:	03 43       	nop			
    c67c:	03 43       	nop			
    c67e:	03 43       	nop			
    c680:	03 43       	nop			
    c682:	03 43       	nop			
    c684:	03 43       	nop			
    c686:	03 43       	nop			
    c688:	03 43       	nop			
    c68a:	03 43       	nop			
    c68c:	03 43       	nop			
    c68e:	03 43       	nop			
    c690:	03 43       	nop			
    c692:	03 43       	nop			
    c694:	03 43       	nop			
    c696:	03 43       	nop			
    c698:	03 43       	nop			
    c69a:	03 43       	nop			
    c69c:	03 43       	nop			
    c69e:	03 43       	nop			
    c6a0:	03 43       	nop			
    c6a2:	03 43       	nop			
    c6a4:	03 43       	nop			
    c6a6:	03 43       	nop			
    c6a8:	03 43       	nop			
    c6aa:	03 43       	nop			
    c6ac:	03 43       	nop			
    c6ae:	03 43       	nop			
    c6b0:	03 43       	nop			
    c6b2:	03 43       	nop			
    c6b4:	03 43       	nop			
    c6b6:	03 43       	nop			
    c6b8:	03 43       	nop			
    c6ba:	03 43       	nop			
    c6bc:	03 43       	nop			
    c6be:	03 43       	nop			
    c6c0:	03 43       	nop			
    c6c2:	03 43       	nop			
    c6c4:	03 43       	nop			
    c6c6:	03 43       	nop			
    c6c8:	03 43       	nop			
    c6ca:	03 43       	nop			
    c6cc:	03 43       	nop			
    c6ce:	03 43       	nop			
    c6d0:	03 43       	nop			
    c6d2:	03 43       	nop			
    c6d4:	03 43       	nop			
    c6d6:	03 43       	nop			
    c6d8:	03 43       	nop			
    c6da:	03 43       	nop			
    c6dc:	03 43       	nop			
    c6de:	03 43       	nop			
    c6e0:	03 43       	nop			
    c6e2:	03 43       	nop			
    c6e4:	03 43       	nop			
    c6e6:	03 43       	nop			
    c6e8:	03 43       	nop			
    c6ea:	03 43       	nop			
    c6ec:	03 43       	nop			
    c6ee:	03 43       	nop			
    c6f0:	03 43       	nop			
    c6f2:	03 43       	nop			
    c6f4:	03 43       	nop			
    c6f6:	03 43       	nop			
    c6f8:	03 43       	nop			
    c6fa:	03 43       	nop			
    c6fc:	03 43       	nop			
    c6fe:	03 43       	nop			
    c700:	03 43       	nop			
    c702:	03 43       	nop			
    c704:	03 43       	nop			
    c706:	03 43       	nop			
    c708:	03 43       	nop			
    c70a:	03 43       	nop			
    c70c:	03 43       	nop			
    c70e:	03 43       	nop			
    c710:	03 43       	nop			
    c712:	03 43       	nop			
    c714:	03 43       	nop			
    c716:	03 43       	nop			
    c718:	03 43       	nop			
    c71a:	03 43       	nop			
    c71c:	03 43       	nop			
    c71e:	03 43       	nop			
    c720:	03 43       	nop			
    c722:	03 43       	nop			
    c724:	03 43       	nop			
    c726:	03 43       	nop			
    c728:	03 43       	nop			
    c72a:	03 43       	nop			
    c72c:	03 43       	nop			
    c72e:	03 43       	nop			
    c730:	03 43       	nop			
    c732:	03 43       	nop			
    c734:	03 43       	nop			
    c736:	03 43       	nop			
    c738:	03 43       	nop			
    c73a:	03 43       	nop			
    c73c:	03 43       	nop			
    c73e:	03 43       	nop			
    c740:	03 43       	nop			
    c742:	03 43       	nop			
    c744:	03 43       	nop			
    c746:	03 43       	nop			
    c748:	03 43       	nop			
    c74a:	03 43       	nop			
    c74c:	03 43       	nop			
    c74e:	03 43       	nop			
    c750:	03 43       	nop			
    c752:	03 43       	nop			
    c754:	03 43       	nop			
    c756:	03 43       	nop			
    c758:	03 43       	nop			
    c75a:	03 43       	nop			
    c75c:	03 43       	nop			
    c75e:	03 43       	nop			
    c760:	03 43       	nop			
    c762:	03 43       	nop			
    c764:	03 43       	nop			
    c766:	03 43       	nop			
    c768:	03 43       	nop			
    c76a:	03 43       	nop			
    c76c:	03 43       	nop			
    c76e:	03 43       	nop			
    c770:	03 43       	nop			
    c772:	03 43       	nop			
    c774:	03 43       	nop			
    c776:	03 43       	nop			
    c778:	03 43       	nop			
    c77a:	03 43       	nop			
    c77c:	03 43       	nop			
    c77e:	03 43       	nop			
    c780:	03 43       	nop			
    c782:	03 43       	nop			
    c784:	03 43       	nop			
    c786:	03 43       	nop			
    c788:	03 43       	nop			
    c78a:	03 43       	nop			
    c78c:	03 43       	nop			
    c78e:	03 43       	nop			
    c790:	03 43       	nop			
    c792:	03 43       	nop			
    c794:	03 43       	nop			
    c796:	03 43       	nop			
    c798:	03 43       	nop			
    c79a:	03 43       	nop			
    c79c:	03 43       	nop			
    c79e:	03 43       	nop			
    c7a0:	03 43       	nop			
    c7a2:	03 43       	nop			
    c7a4:	03 43       	nop			
    c7a6:	03 43       	nop			
    c7a8:	03 43       	nop			
    c7aa:	03 43       	nop			
    c7ac:	03 43       	nop			
    c7ae:	03 43       	nop			
    c7b0:	03 43       	nop			
    c7b2:	03 43       	nop			
    c7b4:	03 43       	nop			
    c7b6:	03 43       	nop			
    c7b8:	03 43       	nop			
    c7ba:	03 43       	nop			
    c7bc:	03 43       	nop			
    c7be:	03 43       	nop			
    c7c0:	03 43       	nop			
    c7c2:	03 43       	nop			
    c7c4:	03 43       	nop			
    c7c6:	03 43       	nop			
    c7c8:	03 43       	nop			
    c7ca:	03 43       	nop			
    c7cc:	03 43       	nop			
    c7ce:	03 43       	nop			
    c7d0:	03 43       	nop			
    c7d2:	03 43       	nop			
    c7d4:	03 43       	nop			
    c7d6:	03 43       	nop			
    c7d8:	03 43       	nop			
    c7da:	03 43       	nop			
    c7dc:	03 43       	nop			
    c7de:	03 43       	nop			
    c7e0:	03 43       	nop			
    c7e2:	03 43       	nop			
    c7e4:	03 43       	nop			
    c7e6:	03 43       	nop			
    c7e8:	03 43       	nop			
    c7ea:	03 43       	nop			
    c7ec:	03 43       	nop			
    c7ee:	03 43       	nop			
    c7f0:	03 43       	nop			
    c7f2:	03 43       	nop			
    c7f4:	03 43       	nop			
    c7f6:	03 43       	nop			
    c7f8:	03 43       	nop			
    c7fa:	03 43       	nop			
    c7fc:	03 43       	nop			
    c7fe:	03 43       	nop			
    c800:	03 43       	nop			
    c802:	03 43       	nop			
    c804:	03 43       	nop			
    c806:	03 43       	nop			
    c808:	03 43       	nop			
    c80a:	03 43       	nop			
    c80c:	03 43       	nop			
    c80e:	03 43       	nop			
    c810:	03 43       	nop			
    c812:	03 43       	nop			
    c814:	03 43       	nop			
    c816:	03 43       	nop			
    c818:	03 43       	nop			
    c81a:	03 43       	nop			
    c81c:	03 43       	nop			
    c81e:	03 43       	nop			
    c820:	03 43       	nop			
    c822:	03 43       	nop			
    c824:	03 43       	nop			
    c826:	03 43       	nop			
    c828:	03 43       	nop			
    c82a:	03 43       	nop			
    c82c:	03 43       	nop			
    c82e:	03 43       	nop			
    c830:	03 43       	nop			
    c832:	03 43       	nop			
    c834:	03 43       	nop			
    c836:	03 43       	nop			
    c838:	03 43       	nop			
    c83a:	03 43       	nop			
    c83c:	03 43       	nop			
    c83e:	03 43       	nop			
    c840:	03 43       	nop			
    c842:	03 43       	nop			
    c844:	03 43       	nop			
    c846:	03 43       	nop			
    c848:	03 43       	nop			
    c84a:	03 43       	nop			
    c84c:	03 43       	nop			
    c84e:	03 43       	nop			
    c850:	03 43       	nop			
    c852:	03 43       	nop			
    c854:	03 43       	nop			
    c856:	03 43       	nop			
    c858:	03 43       	nop			
    c85a:	03 43       	nop			
    c85c:	03 43       	nop			
    c85e:	03 43       	nop			
    c860:	03 43       	nop			
    c862:	03 43       	nop			
    c864:	03 43       	nop			
    c866:	03 43       	nop			
    c868:	03 43       	nop			
    c86a:	03 43       	nop			
    c86c:	03 43       	nop			
    c86e:	03 43       	nop			
    c870:	03 43       	nop			
    c872:	03 43       	nop			
    c874:	03 43       	nop			
    c876:	03 43       	nop			
    c878:	03 43       	nop			
    c87a:	03 43       	nop			
    c87c:	03 43       	nop			
    c87e:	03 43       	nop			
    c880:	03 43       	nop			
    c882:	03 43       	nop			
    c884:	03 43       	nop			
    c886:	03 43       	nop			
    c888:	03 43       	nop			
    c88a:	03 43       	nop			
    c88c:	03 43       	nop			
    c88e:	03 43       	nop			
    c890:	03 43       	nop			
    c892:	03 43       	nop			
    c894:	03 43       	nop			
    c896:	03 43       	nop			
    c898:	03 43       	nop			
    c89a:	03 43       	nop			
    c89c:	03 43       	nop			
    c89e:	03 43       	nop			
    c8a0:	03 43       	nop			
    c8a2:	03 43       	nop			
    c8a4:	03 43       	nop			
    c8a6:	03 43       	nop			
    c8a8:	03 43       	nop			
    c8aa:	03 43       	nop			
    c8ac:	03 43       	nop			
    c8ae:	03 43       	nop			
    c8b0:	03 43       	nop			
    c8b2:	03 43       	nop			
    c8b4:	03 43       	nop			
    c8b6:	03 43       	nop			
    c8b8:	03 43       	nop			
    c8ba:	03 43       	nop			
    c8bc:	03 43       	nop			
    c8be:	03 43       	nop			
    c8c0:	03 43       	nop			
    c8c2:	03 43       	nop			
    c8c4:	03 43       	nop			
    c8c6:	03 43       	nop			
    c8c8:	03 43       	nop			
    c8ca:	03 43       	nop			
    c8cc:	03 43       	nop			
    c8ce:	03 43       	nop			
    c8d0:	03 43       	nop			
    c8d2:	03 43       	nop			
    c8d4:	03 43       	nop			
    c8d6:	03 43       	nop			
    c8d8:	03 43       	nop			
    c8da:	03 43       	nop			
    c8dc:	03 43       	nop			
    c8de:	03 43       	nop			
    c8e0:	03 43       	nop			
    c8e2:	03 43       	nop			
    c8e4:	03 43       	nop			
    c8e6:	03 43       	nop			
    c8e8:	03 43       	nop			
    c8ea:	03 43       	nop			
    c8ec:	03 43       	nop			
    c8ee:	03 43       	nop			
    c8f0:	03 43       	nop			
    c8f2:	03 43       	nop			
    c8f4:	03 43       	nop			
    c8f6:	03 43       	nop			
    c8f8:	03 43       	nop			
    c8fa:	03 43       	nop			
    c8fc:	03 43       	nop			
    c8fe:	03 43       	nop			
    c900:	03 43       	nop			
    c902:	03 43       	nop			
    c904:	03 43       	nop			
    c906:	03 43       	nop			
    c908:	03 43       	nop			
    c90a:	03 43       	nop			
    c90c:	03 43       	nop			
    c90e:	03 43       	nop			
    c910:	03 43       	nop			
    c912:	03 43       	nop			
    c914:	03 43       	nop			
    c916:	03 43       	nop			
    c918:	03 43       	nop			
    c91a:	03 43       	nop			
    c91c:	03 43       	nop			
    c91e:	03 43       	nop			
    c920:	03 43       	nop			
    c922:	03 43       	nop			
    c924:	03 43       	nop			
    c926:	03 43       	nop			
    c928:	03 43       	nop			
    c92a:	03 43       	nop			
    c92c:	03 43       	nop			
    c92e:	03 43       	nop			
    c930:	03 43       	nop			
    c932:	03 43       	nop			
    c934:	03 43       	nop			
    c936:	03 43       	nop			
    c938:	03 43       	nop			
    c93a:	03 43       	nop			
    c93c:	03 43       	nop			
    c93e:	03 43       	nop			
    c940:	03 43       	nop			
    c942:	03 43       	nop			
    c944:	03 43       	nop			
    c946:	03 43       	nop			
    c948:	03 43       	nop			
    c94a:	03 43       	nop			
    c94c:	03 43       	nop			
    c94e:	03 43       	nop			
    c950:	03 43       	nop			
    c952:	03 43       	nop			
    c954:	03 43       	nop			
    c956:	03 43       	nop			
    c958:	03 43       	nop			
    c95a:	03 43       	nop			
    c95c:	03 43       	nop			
    c95e:	03 43       	nop			
    c960:	03 43       	nop			
    c962:	03 43       	nop			
    c964:	03 43       	nop			
    c966:	03 43       	nop			
    c968:	03 43       	nop			
    c96a:	03 43       	nop			
    c96c:	03 43       	nop			
    c96e:	03 43       	nop			
    c970:	03 43       	nop			
    c972:	03 43       	nop			
    c974:	03 43       	nop			
    c976:	03 43       	nop			
    c978:	03 43       	nop			
    c97a:	03 43       	nop			
    c97c:	03 43       	nop			
    c97e:	03 43       	nop			
    c980:	03 43       	nop			
    c982:	03 43       	nop			
    c984:	03 43       	nop			
    c986:	03 43       	nop			
    c988:	03 43       	nop			
    c98a:	03 43       	nop			
    c98c:	03 43       	nop			
    c98e:	03 43       	nop			
    c990:	03 43       	nop			
    c992:	03 43       	nop			
    c994:	03 43       	nop			
    c996:	03 43       	nop			
    c998:	03 43       	nop			
    c99a:	03 43       	nop			
    c99c:	03 43       	nop			
    c99e:	03 43       	nop			
    c9a0:	03 43       	nop			
    c9a2:	03 43       	nop			
    c9a4:	03 43       	nop			
    c9a6:	03 43       	nop			
    c9a8:	03 43       	nop			
    c9aa:	03 43       	nop			
    c9ac:	03 43       	nop			
    c9ae:	03 43       	nop			
    c9b0:	03 43       	nop			
    c9b2:	03 43       	nop			
    c9b4:	03 43       	nop			
    c9b6:	03 43       	nop			
    c9b8:	03 43       	nop			
    c9ba:	03 43       	nop			
    c9bc:	03 43       	nop			
    c9be:	03 43       	nop			
    c9c0:	03 43       	nop			
    c9c2:	03 43       	nop			
    c9c4:	03 43       	nop			
    c9c6:	03 43       	nop			
    c9c8:	03 43       	nop			
    c9ca:	03 43       	nop			
    c9cc:	03 43       	nop			
    c9ce:	03 43       	nop			
    c9d0:	03 43       	nop			
    c9d2:	03 43       	nop			
    c9d4:	03 43       	nop			
    c9d6:	03 43       	nop			
    c9d8:	03 43       	nop			
    c9da:	03 43       	nop			
    c9dc:	03 43       	nop			
    c9de:	03 43       	nop			
    c9e0:	03 43       	nop			
    c9e2:	03 43       	nop			
    c9e4:	03 43       	nop			
    c9e6:	03 43       	nop			
    c9e8:	03 43       	nop			
    c9ea:	03 43       	nop			
    c9ec:	03 43       	nop			
    c9ee:	03 43       	nop			
    c9f0:	03 43       	nop			
    c9f2:	03 43       	nop			
    c9f4:	03 43       	nop			
    c9f6:	03 43       	nop			
    c9f8:	03 43       	nop			
    c9fa:	03 43       	nop			
    c9fc:	03 43       	nop			
    c9fe:	03 43       	nop			
    ca00:	03 43       	nop			
    ca02:	03 43       	nop			
    ca04:	03 43       	nop			
    ca06:	03 43       	nop			
    ca08:	03 43       	nop			
    ca0a:	03 43       	nop			
    ca0c:	03 43       	nop			
    ca0e:	03 43       	nop			
    ca10:	03 43       	nop			
    ca12:	03 43       	nop			
    ca14:	03 43       	nop			
    ca16:	03 43       	nop			
    ca18:	03 43       	nop			
    ca1a:	03 43       	nop			
    ca1c:	03 43       	nop			
    ca1e:	03 43       	nop			
    ca20:	03 43       	nop			
    ca22:	03 43       	nop			
    ca24:	03 43       	nop			
    ca26:	03 43       	nop			
    ca28:	03 43       	nop			
    ca2a:	03 43       	nop			
    ca2c:	03 43       	nop			
    ca2e:	03 43       	nop			
    ca30:	03 43       	nop			
    ca32:	03 43       	nop			
    ca34:	03 43       	nop			
    ca36:	03 43       	nop			
    ca38:	03 43       	nop			
    ca3a:	03 43       	nop			
    ca3c:	03 43       	nop			
    ca3e:	03 43       	nop			
    ca40:	03 43       	nop			
    ca42:	03 43       	nop			
    ca44:	03 43       	nop			
    ca46:	03 43       	nop			
    ca48:	03 43       	nop			
    ca4a:	03 43       	nop			
    ca4c:	03 43       	nop			
    ca4e:	03 43       	nop			
    ca50:	03 43       	nop			
    ca52:	03 43       	nop			
    ca54:	03 43       	nop			
    ca56:	03 43       	nop			
    ca58:	03 43       	nop			
    ca5a:	03 43       	nop			
    ca5c:	03 43       	nop			
    ca5e:	03 43       	nop			
    ca60:	03 43       	nop			
    ca62:	03 43       	nop			
    ca64:	03 43       	nop			
    ca66:	03 43       	nop			
    ca68:	03 43       	nop			
    ca6a:	03 43       	nop			
    ca6c:	03 43       	nop			
    ca6e:	03 43       	nop			
    ca70:	03 43       	nop			
    ca72:	03 43       	nop			
    ca74:	03 43       	nop			
    ca76:	03 43       	nop			
    ca78:	03 43       	nop			
    ca7a:	03 43       	nop			
    ca7c:	03 43       	nop			
    ca7e:	03 43       	nop			
    ca80:	03 43       	nop			
    ca82:	03 43       	nop			
    ca84:	03 43       	nop			
    ca86:	03 43       	nop			
    ca88:	03 43       	nop			
    ca8a:	03 43       	nop			
    ca8c:	03 43       	nop			
    ca8e:	03 43       	nop			
    ca90:	03 43       	nop			
    ca92:	03 43       	nop			
    ca94:	03 43       	nop			
    ca96:	03 43       	nop			
    ca98:	03 43       	nop			
    ca9a:	03 43       	nop			
    ca9c:	03 43       	nop			
    ca9e:	03 43       	nop			
    caa0:	03 43       	nop			
    caa2:	03 43       	nop			
    caa4:	03 43       	nop			
    caa6:	03 43       	nop			
    caa8:	03 43       	nop			
    caaa:	03 43       	nop			
    caac:	03 43       	nop			
    caae:	03 43       	nop			
    cab0:	03 43       	nop			
    cab2:	03 43       	nop			
    cab4:	03 43       	nop			
    cab6:	03 43       	nop			
    cab8:	03 43       	nop			
    caba:	03 43       	nop			
    cabc:	03 43       	nop			
    cabe:	03 43       	nop			
    cac0:	03 43       	nop			
    cac2:	03 43       	nop			
    cac4:	03 43       	nop			
    cac6:	03 43       	nop			
    cac8:	03 43       	nop			
    caca:	03 43       	nop			
    cacc:	03 43       	nop			
    cace:	03 43       	nop			
    cad0:	03 43       	nop			
    cad2:	03 43       	nop			
    cad4:	03 43       	nop			
    cad6:	03 43       	nop			
    cad8:	03 43       	nop			
    cada:	03 43       	nop			
    cadc:	03 43       	nop			
    cade:	03 43       	nop			
    cae0:	03 43       	nop			
    cae2:	03 43       	nop			
    cae4:	03 43       	nop			
    cae6:	03 43       	nop			
    cae8:	03 43       	nop			
    caea:	03 43       	nop			
    caec:	03 43       	nop			
    caee:	03 43       	nop			
    caf0:	03 43       	nop			
    caf2:	03 43       	nop			
    caf4:	03 43       	nop			
    caf6:	03 43       	nop			
    caf8:	03 43       	nop			
    cafa:	03 43       	nop			
    cafc:	03 43       	nop			
    cafe:	03 43       	nop			
    cb00:	03 43       	nop			
    cb02:	03 43       	nop			
    cb04:	03 43       	nop			
    cb06:	03 43       	nop			
    cb08:	03 43       	nop			
    cb0a:	03 43       	nop			
    cb0c:	03 43       	nop			
    cb0e:	03 43       	nop			
    cb10:	03 43       	nop			
    cb12:	03 43       	nop			
    cb14:	03 43       	nop			
    cb16:	03 43       	nop			
    cb18:	03 43       	nop			
    cb1a:	03 43       	nop			
    cb1c:	03 43       	nop			
    cb1e:	03 43       	nop			
    cb20:	03 43       	nop			
    cb22:	03 43       	nop			
    cb24:	03 43       	nop			
    cb26:	03 43       	nop			
    cb28:	03 43       	nop			
    cb2a:	03 43       	nop			
    cb2c:	03 43       	nop			
    cb2e:	03 43       	nop			
    cb30:	03 43       	nop			
    cb32:	03 43       	nop			
    cb34:	03 43       	nop			
    cb36:	03 43       	nop			
    cb38:	03 43       	nop			
    cb3a:	03 43       	nop			
    cb3c:	03 43       	nop			
    cb3e:	03 43       	nop			
    cb40:	03 43       	nop			
    cb42:	03 43       	nop			
    cb44:	03 43       	nop			
    cb46:	03 43       	nop			
    cb48:	03 43       	nop			
    cb4a:	03 43       	nop			
    cb4c:	03 43       	nop			
    cb4e:	03 43       	nop			
    cb50:	03 43       	nop			
    cb52:	03 43       	nop			
    cb54:	03 43       	nop			
    cb56:	03 43       	nop			
    cb58:	03 43       	nop			
    cb5a:	03 43       	nop			
    cb5c:	03 43       	nop			
    cb5e:	03 43       	nop			
    cb60:	03 43       	nop			
    cb62:	03 43       	nop			
    cb64:	03 43       	nop			
    cb66:	03 43       	nop			
    cb68:	03 43       	nop			
    cb6a:	03 43       	nop			
    cb6c:	03 43       	nop			
    cb6e:	03 43       	nop			
    cb70:	03 43       	nop			
    cb72:	03 43       	nop			
    cb74:	03 43       	nop			
    cb76:	03 43       	nop			
    cb78:	03 43       	nop			
    cb7a:	03 43       	nop			
    cb7c:	03 43       	nop			
    cb7e:	03 43       	nop			
    cb80:	03 43       	nop			
    cb82:	03 43       	nop			
    cb84:	03 43       	nop			
    cb86:	03 43       	nop			
    cb88:	03 43       	nop			
    cb8a:	03 43       	nop			
    cb8c:	03 43       	nop			
    cb8e:	03 43       	nop			
    cb90:	03 43       	nop			
    cb92:	03 43       	nop			
    cb94:	03 43       	nop			
    cb96:	03 43       	nop			
    cb98:	03 43       	nop			
    cb9a:	03 43       	nop			
    cb9c:	03 43       	nop			
    cb9e:	03 43       	nop			
    cba0:	03 43       	nop			
    cba2:	03 43       	nop			
    cba4:	03 43       	nop			
    cba6:	03 43       	nop			
    cba8:	03 43       	nop			
    cbaa:	03 43       	nop			
    cbac:	03 43       	nop			
    cbae:	03 43       	nop			
    cbb0:	03 43       	nop			
    cbb2:	03 43       	nop			
    cbb4:	03 43       	nop			
    cbb6:	03 43       	nop			
    cbb8:	03 43       	nop			
    cbba:	03 43       	nop			
    cbbc:	03 43       	nop			
    cbbe:	03 43       	nop			
    cbc0:	03 43       	nop			
    cbc2:	03 43       	nop			
    cbc4:	03 43       	nop			
    cbc6:	03 43       	nop			
    cbc8:	03 43       	nop			
    cbca:	03 43       	nop			
    cbcc:	03 43       	nop			
    cbce:	03 43       	nop			
    cbd0:	03 43       	nop			
    cbd2:	03 43       	nop			
    cbd4:	03 43       	nop			
    cbd6:	03 43       	nop			
    cbd8:	03 43       	nop			
    cbda:	03 43       	nop			
    cbdc:	03 43       	nop			
    cbde:	03 43       	nop			
    cbe0:	03 43       	nop			
    cbe2:	03 43       	nop			
    cbe4:	03 43       	nop			
    cbe6:	03 43       	nop			
    cbe8:	03 43       	nop			
    cbea:	03 43       	nop			
    cbec:	03 43       	nop			
    cbee:	03 43       	nop			
    cbf0:	03 43       	nop			
    cbf2:	03 43       	nop			
    cbf4:	03 43       	nop			
    cbf6:	03 43       	nop			
    cbf8:	03 43       	nop			
    cbfa:	03 43       	nop			
    cbfc:	03 43       	nop			
    cbfe:	03 43       	nop			
    cc00:	03 43       	nop			
    cc02:	03 43       	nop			
    cc04:	03 43       	nop			
    cc06:	03 43       	nop			
    cc08:	03 43       	nop			
    cc0a:	03 43       	nop			
    cc0c:	03 43       	nop			
    cc0e:	03 43       	nop			
    cc10:	03 43       	nop			
    cc12:	03 43       	nop			
    cc14:	03 43       	nop			
    cc16:	03 43       	nop			
    cc18:	03 43       	nop			
    cc1a:	03 43       	nop			
    cc1c:	03 43       	nop			
    cc1e:	03 43       	nop			
    cc20:	03 43       	nop			
    cc22:	03 43       	nop			
    cc24:	03 43       	nop			
    cc26:	03 43       	nop			
    cc28:	03 43       	nop			
    cc2a:	03 43       	nop			
    cc2c:	03 43       	nop			
    cc2e:	03 43       	nop			
    cc30:	03 43       	nop			
    cc32:	03 43       	nop			
    cc34:	03 43       	nop			
    cc36:	03 43       	nop			
    cc38:	03 43       	nop			
    cc3a:	03 43       	nop			
    cc3c:	03 43       	nop			
    cc3e:	03 43       	nop			
    cc40:	03 43       	nop			
    cc42:	03 43       	nop			
    cc44:	03 43       	nop			
    cc46:	03 43       	nop			
    cc48:	03 43       	nop			
    cc4a:	03 43       	nop			
    cc4c:	03 43       	nop			
    cc4e:	03 43       	nop			
    cc50:	03 43       	nop			
    cc52:	03 43       	nop			
    cc54:	03 43       	nop			
    cc56:	03 43       	nop			
    cc58:	03 43       	nop			
    cc5a:	03 43       	nop			
    cc5c:	03 43       	nop			
    cc5e:	03 43       	nop			
    cc60:	03 43       	nop			
    cc62:	03 43       	nop			
    cc64:	03 43       	nop			
    cc66:	03 43       	nop			
    cc68:	03 43       	nop			
    cc6a:	03 43       	nop			
    cc6c:	03 43       	nop			
    cc6e:	03 43       	nop			
    cc70:	03 43       	nop			
    cc72:	03 43       	nop			
    cc74:	03 43       	nop			
    cc76:	03 43       	nop			
    cc78:	03 43       	nop			
    cc7a:	03 43       	nop			
    cc7c:	03 43       	nop			
    cc7e:	03 43       	nop			
    cc80:	03 43       	nop			
    cc82:	03 43       	nop			
    cc84:	03 43       	nop			
    cc86:	03 43       	nop			
    cc88:	03 43       	nop			
    cc8a:	03 43       	nop			
    cc8c:	03 43       	nop			
    cc8e:	03 43       	nop			
    cc90:	03 43       	nop			
    cc92:	03 43       	nop			
    cc94:	03 43       	nop			
    cc96:	03 43       	nop			
    cc98:	03 43       	nop			
    cc9a:	03 43       	nop			
    cc9c:	03 43       	nop			
    cc9e:	03 43       	nop			
    cca0:	03 43       	nop			
    cca2:	03 43       	nop			
    cca4:	03 43       	nop			
    cca6:	03 43       	nop			
    cca8:	03 43       	nop			
    ccaa:	03 43       	nop			
    ccac:	03 43       	nop			
    ccae:	03 43       	nop			
    ccb0:	03 43       	nop			
    ccb2:	03 43       	nop			
    ccb4:	03 43       	nop			
    ccb6:	03 43       	nop			
    ccb8:	03 43       	nop			
    ccba:	03 43       	nop			
    ccbc:	03 43       	nop			
    ccbe:	03 43       	nop			
    ccc0:	03 43       	nop			
    ccc2:	03 43       	nop			
    ccc4:	03 43       	nop			
    ccc6:	03 43       	nop			
    ccc8:	03 43       	nop			
    ccca:	03 43       	nop			
    cccc:	03 43       	nop			
    ccce:	03 43       	nop			
    ccd0:	03 43       	nop			
    ccd2:	03 43       	nop			
    ccd4:	03 43       	nop			
    ccd6:	03 43       	nop			
    ccd8:	03 43       	nop			
    ccda:	03 43       	nop			
    ccdc:	03 43       	nop			
    ccde:	03 43       	nop			
    cce0:	03 43       	nop			
    cce2:	03 43       	nop			
    cce4:	03 43       	nop			
    cce6:	03 43       	nop			
    cce8:	03 43       	nop			
    ccea:	03 43       	nop			
    ccec:	03 43       	nop			
    ccee:	03 43       	nop			
    ccf0:	03 43       	nop			
    ccf2:	03 43       	nop			
    ccf4:	03 43       	nop			
    ccf6:	03 43       	nop			
    ccf8:	03 43       	nop			
    ccfa:	03 43       	nop			
    ccfc:	03 43       	nop			
    ccfe:	03 43       	nop			
    cd00:	03 43       	nop			
    cd02:	03 43       	nop			
    cd04:	03 43       	nop			
    cd06:	03 43       	nop			
    cd08:	03 43       	nop			
    cd0a:	03 43       	nop			
    cd0c:	03 43       	nop			
    cd0e:	03 43       	nop			
    cd10:	03 43       	nop			
    cd12:	03 43       	nop			
    cd14:	03 43       	nop			
    cd16:	03 43       	nop			
    cd18:	03 43       	nop			
    cd1a:	03 43       	nop			
    cd1c:	03 43       	nop			
    cd1e:	03 43       	nop			
    cd20:	03 43       	nop			
    cd22:	03 43       	nop			
    cd24:	03 43       	nop			
    cd26:	03 43       	nop			
    cd28:	03 43       	nop			
    cd2a:	03 43       	nop			
    cd2c:	03 43       	nop			
    cd2e:	03 43       	nop			
    cd30:	03 43       	nop			
    cd32:	03 43       	nop			
    cd34:	03 43       	nop			
    cd36:	03 43       	nop			
    cd38:	03 43       	nop			
    cd3a:	03 43       	nop			
    cd3c:	03 43       	nop			
    cd3e:	03 43       	nop			
    cd40:	03 43       	nop			
    cd42:	03 43       	nop			
    cd44:	03 43       	nop			
    cd46:	03 43       	nop			
    cd48:	03 43       	nop			
    cd4a:	03 43       	nop			
    cd4c:	03 43       	nop			
    cd4e:	03 43       	nop			
    cd50:	03 43       	nop			
    cd52:	03 43       	nop			
    cd54:	03 43       	nop			
    cd56:	03 43       	nop			
    cd58:	03 43       	nop			
    cd5a:	03 43       	nop			
    cd5c:	03 43       	nop			
    cd5e:	03 43       	nop			
    cd60:	03 43       	nop			
    cd62:	03 43       	nop			
    cd64:	03 43       	nop			
    cd66:	03 43       	nop			
    cd68:	03 43       	nop			
    cd6a:	03 43       	nop			
    cd6c:	03 43       	nop			
    cd6e:	03 43       	nop			
    cd70:	03 43       	nop			
    cd72:	03 43       	nop			
    cd74:	03 43       	nop			
    cd76:	03 43       	nop			
    cd78:	03 43       	nop			
    cd7a:	03 43       	nop			
    cd7c:	03 43       	nop			
    cd7e:	03 43       	nop			
    cd80:	03 43       	nop			
    cd82:	03 43       	nop			
    cd84:	03 43       	nop			
    cd86:	03 43       	nop			
    cd88:	03 43       	nop			
    cd8a:	03 43       	nop			
    cd8c:	03 43       	nop			
    cd8e:	03 43       	nop			
    cd90:	03 43       	nop			
    cd92:	03 43       	nop			
    cd94:	03 43       	nop			
    cd96:	03 43       	nop			
    cd98:	03 43       	nop			
    cd9a:	03 43       	nop			
    cd9c:	03 43       	nop			
    cd9e:	03 43       	nop			
    cda0:	03 43       	nop			
    cda2:	03 43       	nop			
    cda4:	03 43       	nop			
    cda6:	03 43       	nop			
    cda8:	03 43       	nop			
    cdaa:	03 43       	nop			
    cdac:	03 43       	nop			
    cdae:	03 43       	nop			
    cdb0:	03 43       	nop			
    cdb2:	03 43       	nop			
    cdb4:	03 43       	nop			
    cdb6:	03 43       	nop			
    cdb8:	03 43       	nop			
    cdba:	03 43       	nop			
    cdbc:	03 43       	nop			
    cdbe:	03 43       	nop			
    cdc0:	03 43       	nop			
    cdc2:	03 43       	nop			
    cdc4:	03 43       	nop			
    cdc6:	03 43       	nop			
    cdc8:	03 43       	nop			
    cdca:	03 43       	nop			
    cdcc:	03 43       	nop			
    cdce:	03 43       	nop			
    cdd0:	03 43       	nop			
    cdd2:	03 43       	nop			
    cdd4:	03 43       	nop			
    cdd6:	03 43       	nop			
    cdd8:	03 43       	nop			
    cdda:	03 43       	nop			
    cddc:	03 43       	nop			
    cdde:	03 43       	nop			
    cde0:	03 43       	nop			
    cde2:	03 43       	nop			
    cde4:	03 43       	nop			
    cde6:	03 43       	nop			
    cde8:	03 43       	nop			
    cdea:	03 43       	nop			
    cdec:	03 43       	nop			
    cdee:	03 43       	nop			
    cdf0:	03 43       	nop			
    cdf2:	03 43       	nop			
    cdf4:	03 43       	nop			
    cdf6:	03 43       	nop			
    cdf8:	03 43       	nop			
    cdfa:	03 43       	nop			
    cdfc:	03 43       	nop			
    cdfe:	03 43       	nop			
    ce00:	03 43       	nop			
    ce02:	03 43       	nop			
    ce04:	03 43       	nop			
    ce06:	03 43       	nop			
    ce08:	03 43       	nop			
    ce0a:	03 43       	nop			
    ce0c:	03 43       	nop			
    ce0e:	03 43       	nop			
    ce10:	03 43       	nop			
    ce12:	03 43       	nop			
    ce14:	03 43       	nop			
    ce16:	03 43       	nop			
    ce18:	03 43       	nop			
    ce1a:	03 43       	nop			
    ce1c:	03 43       	nop			
    ce1e:	03 43       	nop			
    ce20:	03 43       	nop			
    ce22:	03 43       	nop			
    ce24:	03 43       	nop			
    ce26:	03 43       	nop			
    ce28:	03 43       	nop			
    ce2a:	03 43       	nop			
    ce2c:	03 43       	nop			
    ce2e:	03 43       	nop			
    ce30:	03 43       	nop			
    ce32:	03 43       	nop			
    ce34:	03 43       	nop			
    ce36:	03 43       	nop			
    ce38:	03 43       	nop			
    ce3a:	03 43       	nop			
    ce3c:	03 43       	nop			
    ce3e:	03 43       	nop			
    ce40:	03 43       	nop			
    ce42:	03 43       	nop			
    ce44:	03 43       	nop			
    ce46:	03 43       	nop			
    ce48:	03 43       	nop			
    ce4a:	03 43       	nop			
    ce4c:	03 43       	nop			
    ce4e:	03 43       	nop			
    ce50:	03 43       	nop			
    ce52:	03 43       	nop			
    ce54:	03 43       	nop			
    ce56:	03 43       	nop			
    ce58:	03 43       	nop			
    ce5a:	03 43       	nop			
    ce5c:	03 43       	nop			
    ce5e:	03 43       	nop			
    ce60:	03 43       	nop			
    ce62:	03 43       	nop			
    ce64:	03 43       	nop			
    ce66:	03 43       	nop			
    ce68:	03 43       	nop			
    ce6a:	03 43       	nop			
    ce6c:	03 43       	nop			
    ce6e:	03 43       	nop			
    ce70:	03 43       	nop			
    ce72:	03 43       	nop			
    ce74:	03 43       	nop			
    ce76:	03 43       	nop			
    ce78:	03 43       	nop			
    ce7a:	03 43       	nop			
    ce7c:	03 43       	nop			
    ce7e:	03 43       	nop			
    ce80:	03 43       	nop			
    ce82:	03 43       	nop			
    ce84:	03 43       	nop			
    ce86:	03 43       	nop			
    ce88:	03 43       	nop			
    ce8a:	03 43       	nop			
    ce8c:	03 43       	nop			
    ce8e:	03 43       	nop			
    ce90:	03 43       	nop			
    ce92:	03 43       	nop			
    ce94:	03 43       	nop			
    ce96:	03 43       	nop			
    ce98:	03 43       	nop			
    ce9a:	03 43       	nop			
    ce9c:	03 43       	nop			
    ce9e:	03 43       	nop			
    cea0:	03 43       	nop			
    cea2:	03 43       	nop			
    cea4:	03 43       	nop			
    cea6:	03 43       	nop			
    cea8:	03 43       	nop			
    ceaa:	03 43       	nop			
    ceac:	03 43       	nop			
    ceae:	03 43       	nop			
    ceb0:	03 43       	nop			
    ceb2:	03 43       	nop			
    ceb4:	03 43       	nop			
    ceb6:	03 43       	nop			
    ceb8:	03 43       	nop			
    ceba:	03 43       	nop			
    cebc:	03 43       	nop			
    cebe:	03 43       	nop			
    cec0:	03 43       	nop			
    cec2:	03 43       	nop			
    cec4:	03 43       	nop			
    cec6:	03 43       	nop			
    cec8:	03 43       	nop			
    ceca:	03 43       	nop			
    cecc:	03 43       	nop			
    cece:	03 43       	nop			
    ced0:	03 43       	nop			
    ced2:	03 43       	nop			
    ced4:	03 43       	nop			
    ced6:	03 43       	nop			
    ced8:	03 43       	nop			
    ceda:	03 43       	nop			
    cedc:	03 43       	nop			
    cede:	03 43       	nop			
    cee0:	03 43       	nop			
    cee2:	03 43       	nop			
    cee4:	03 43       	nop			
    cee6:	03 43       	nop			
    cee8:	03 43       	nop			
    ceea:	03 43       	nop			
    ceec:	03 43       	nop			
    ceee:	03 43       	nop			
    cef0:	03 43       	nop			
    cef2:	03 43       	nop			
    cef4:	03 43       	nop			
    cef6:	03 43       	nop			
    cef8:	03 43       	nop			
    cefa:	03 43       	nop			
    cefc:	03 43       	nop			
    cefe:	03 43       	nop			
    cf00:	03 43       	nop			
    cf02:	03 43       	nop			
    cf04:	03 43       	nop			
    cf06:	03 43       	nop			
    cf08:	03 43       	nop			
    cf0a:	03 43       	nop			
    cf0c:	03 43       	nop			
    cf0e:	03 43       	nop			
    cf10:	03 43       	nop			
    cf12:	03 43       	nop			
    cf14:	03 43       	nop			
    cf16:	03 43       	nop			
    cf18:	03 43       	nop			
    cf1a:	03 43       	nop			
    cf1c:	03 43       	nop			
    cf1e:	03 43       	nop			
    cf20:	03 43       	nop			
    cf22:	03 43       	nop			
    cf24:	03 43       	nop			
    cf26:	03 43       	nop			
    cf28:	03 43       	nop			
    cf2a:	03 43       	nop			
    cf2c:	03 43       	nop			
    cf2e:	03 43       	nop			
    cf30:	03 43       	nop			
    cf32:	03 43       	nop			
    cf34:	03 43       	nop			
    cf36:	03 43       	nop			
    cf38:	03 43       	nop			
    cf3a:	03 43       	nop			
    cf3c:	03 43       	nop			
    cf3e:	03 43       	nop			
    cf40:	03 43       	nop			
    cf42:	03 43       	nop			
    cf44:	03 43       	nop			
    cf46:	03 43       	nop			
    cf48:	03 43       	nop			
    cf4a:	03 43       	nop			
    cf4c:	03 43       	nop			
    cf4e:	03 43       	nop			
    cf50:	03 43       	nop			
    cf52:	03 43       	nop			
    cf54:	03 43       	nop			
    cf56:	03 43       	nop			
    cf58:	03 43       	nop			
    cf5a:	03 43       	nop			
    cf5c:	03 43       	nop			
    cf5e:	03 43       	nop			
    cf60:	03 43       	nop			
    cf62:	03 43       	nop			
    cf64:	03 43       	nop			
    cf66:	03 43       	nop			
    cf68:	03 43       	nop			
    cf6a:	03 43       	nop			
    cf6c:	03 43       	nop			
    cf6e:	03 43       	nop			
    cf70:	03 43       	nop			
    cf72:	03 43       	nop			
    cf74:	03 43       	nop			
    cf76:	03 43       	nop			
    cf78:	03 43       	nop			
    cf7a:	03 43       	nop			
    cf7c:	03 43       	nop			
    cf7e:	03 43       	nop			
    cf80:	03 43       	nop			
    cf82:	03 43       	nop			
    cf84:	03 43       	nop			
    cf86:	03 43       	nop			
    cf88:	03 43       	nop			
    cf8a:	03 43       	nop			
    cf8c:	03 43       	nop			
    cf8e:	03 43       	nop			
    cf90:	03 43       	nop			
    cf92:	03 43       	nop			
    cf94:	03 43       	nop			
    cf96:	03 43       	nop			
    cf98:	03 43       	nop			
    cf9a:	03 43       	nop			
    cf9c:	03 43       	nop			
    cf9e:	03 43       	nop			
    cfa0:	03 43       	nop			
    cfa2:	03 43       	nop			
    cfa4:	03 43       	nop			
    cfa6:	03 43       	nop			
    cfa8:	03 43       	nop			
    cfaa:	03 43       	nop			
    cfac:	03 43       	nop			
    cfae:	03 43       	nop			
    cfb0:	03 43       	nop			
    cfb2:	03 43       	nop			
    cfb4:	03 43       	nop			
    cfb6:	03 43       	nop			
    cfb8:	03 43       	nop			
    cfba:	03 43       	nop			
    cfbc:	03 43       	nop			
    cfbe:	03 43       	nop			
    cfc0:	03 43       	nop			
    cfc2:	03 43       	nop			
    cfc4:	03 43       	nop			
    cfc6:	03 43       	nop			
    cfc8:	03 43       	nop			
    cfca:	03 43       	nop			
    cfcc:	03 43       	nop			
    cfce:	03 43       	nop			
    cfd0:	03 43       	nop			
    cfd2:	03 43       	nop			
    cfd4:	03 43       	nop			
    cfd6:	03 43       	nop			
    cfd8:	03 43       	nop			
    cfda:	03 43       	nop			
    cfdc:	03 43       	nop			
    cfde:	03 43       	nop			
    cfe0:	03 43       	nop			
    cfe2:	03 43       	nop			
    cfe4:	03 43       	nop			
    cfe6:	03 43       	nop			
    cfe8:	03 43       	nop			
    cfea:	03 43       	nop			
    cfec:	03 43       	nop			
    cfee:	03 43       	nop			
    cff0:	03 43       	nop			
    cff2:	03 43       	nop			
    cff4:	03 43       	nop			
    cff6:	03 43       	nop			
    cff8:	03 43       	nop			
    cffa:	03 43       	nop			
    cffc:	03 43       	nop			
    cffe:	03 43       	nop			
    d000:	03 43       	nop			
    d002:	03 43       	nop			
    d004:	03 43       	nop			
    d006:	03 43       	nop			
    d008:	03 43       	nop			
    d00a:	03 43       	nop			
    d00c:	03 43       	nop			
    d00e:	03 43       	nop			
    d010:	03 43       	nop			
    d012:	03 43       	nop			
    d014:	03 43       	nop			
    d016:	03 43       	nop			
    d018:	03 43       	nop			
    d01a:	03 43       	nop			
    d01c:	03 43       	nop			
    d01e:	03 43       	nop			
    d020:	03 43       	nop			
    d022:	03 43       	nop			
    d024:	03 43       	nop			
    d026:	03 43       	nop			
    d028:	03 43       	nop			
    d02a:	03 43       	nop			
    d02c:	03 43       	nop			
    d02e:	03 43       	nop			
    d030:	03 43       	nop			
    d032:	03 43       	nop			
    d034:	03 43       	nop			
    d036:	03 43       	nop			
    d038:	03 43       	nop			
    d03a:	03 43       	nop			
    d03c:	03 43       	nop			
    d03e:	03 43       	nop			
    d040:	03 43       	nop			
    d042:	03 43       	nop			
    d044:	03 43       	nop			
    d046:	03 43       	nop			
    d048:	03 43       	nop			
    d04a:	03 43       	nop			
    d04c:	03 43       	nop			
    d04e:	03 43       	nop			
    d050:	03 43       	nop			
    d052:	03 43       	nop			
    d054:	03 43       	nop			
    d056:	03 43       	nop			
    d058:	03 43       	nop			
    d05a:	03 43       	nop			
    d05c:	03 43       	nop			
    d05e:	03 43       	nop			
    d060:	03 43       	nop			
    d062:	03 43       	nop			
    d064:	03 43       	nop			
    d066:	03 43       	nop			
    d068:	03 43       	nop			
    d06a:	03 43       	nop			
    d06c:	03 43       	nop			
    d06e:	03 43       	nop			
    d070:	03 43       	nop			
    d072:	03 43       	nop			
    d074:	03 43       	nop			
    d076:	03 43       	nop			
    d078:	03 43       	nop			
    d07a:	03 43       	nop			
    d07c:	03 43       	nop			
    d07e:	03 43       	nop			
    d080:	03 43       	nop			
    d082:	03 43       	nop			
    d084:	03 43       	nop			
    d086:	03 43       	nop			
    d088:	03 43       	nop			
    d08a:	03 43       	nop			
    d08c:	03 43       	nop			
    d08e:	03 43       	nop			
    d090:	03 43       	nop			
    d092:	03 43       	nop			
    d094:	03 43       	nop			
    d096:	03 43       	nop			
    d098:	03 43       	nop			
    d09a:	03 43       	nop			
    d09c:	03 43       	nop			
    d09e:	03 43       	nop			
    d0a0:	03 43       	nop			
    d0a2:	03 43       	nop			
    d0a4:	03 43       	nop			
    d0a6:	03 43       	nop			
    d0a8:	03 43       	nop			
    d0aa:	03 43       	nop			
    d0ac:	03 43       	nop			
    d0ae:	03 43       	nop			
    d0b0:	03 43       	nop			
    d0b2:	03 43       	nop			
    d0b4:	03 43       	nop			
    d0b6:	03 43       	nop			
    d0b8:	03 43       	nop			
    d0ba:	03 43       	nop			
    d0bc:	03 43       	nop			
    d0be:	03 43       	nop			
    d0c0:	03 43       	nop			
    d0c2:	03 43       	nop			
    d0c4:	03 43       	nop			
    d0c6:	03 43       	nop			
    d0c8:	03 43       	nop			
    d0ca:	03 43       	nop			
    d0cc:	03 43       	nop			
    d0ce:	03 43       	nop			
    d0d0:	03 43       	nop			
    d0d2:	03 43       	nop			
    d0d4:	03 43       	nop			
    d0d6:	03 43       	nop			
    d0d8:	03 43       	nop			
    d0da:	03 43       	nop			
    d0dc:	03 43       	nop			
    d0de:	03 43       	nop			
    d0e0:	03 43       	nop			
    d0e2:	03 43       	nop			
    d0e4:	03 43       	nop			
    d0e6:	03 43       	nop			
    d0e8:	03 43       	nop			
    d0ea:	03 43       	nop			
    d0ec:	03 43       	nop			
    d0ee:	03 43       	nop			
    d0f0:	03 43       	nop			
    d0f2:	03 43       	nop			
    d0f4:	03 43       	nop			
    d0f6:	03 43       	nop			
    d0f8:	03 43       	nop			
    d0fa:	03 43       	nop			
    d0fc:	03 43       	nop			
    d0fe:	03 43       	nop			
    d100:	03 43       	nop			
    d102:	03 43       	nop			
    d104:	03 43       	nop			
    d106:	03 43       	nop			
    d108:	03 43       	nop			
    d10a:	03 43       	nop			
    d10c:	03 43       	nop			
    d10e:	03 43       	nop			
    d110:	03 43       	nop			
    d112:	03 43       	nop			
    d114:	03 43       	nop			
    d116:	03 43       	nop			
    d118:	03 43       	nop			
    d11a:	03 43       	nop			
    d11c:	03 43       	nop			
    d11e:	03 43       	nop			
    d120:	03 43       	nop			
    d122:	03 43       	nop			
    d124:	03 43       	nop			
    d126:	03 43       	nop			
    d128:	03 43       	nop			
    d12a:	03 43       	nop			
    d12c:	03 43       	nop			
    d12e:	03 43       	nop			
    d130:	03 43       	nop			
    d132:	03 43       	nop			
    d134:	03 43       	nop			
    d136:	03 43       	nop			
    d138:	03 43       	nop			
    d13a:	03 43       	nop			
    d13c:	03 43       	nop			
    d13e:	03 43       	nop			
    d140:	03 43       	nop			
    d142:	03 43       	nop			
    d144:	03 43       	nop			
    d146:	03 43       	nop			
    d148:	03 43       	nop			
    d14a:	03 43       	nop			
    d14c:	03 43       	nop			
    d14e:	03 43       	nop			
    d150:	03 43       	nop			
    d152:	03 43       	nop			
    d154:	03 43       	nop			
    d156:	03 43       	nop			
    d158:	03 43       	nop			
    d15a:	03 43       	nop			
    d15c:	03 43       	nop			
    d15e:	03 43       	nop			
    d160:	03 43       	nop			
    d162:	03 43       	nop			
    d164:	03 43       	nop			
    d166:	03 43       	nop			
    d168:	03 43       	nop			
    d16a:	03 43       	nop			
    d16c:	03 43       	nop			
    d16e:	03 43       	nop			
    d170:	03 43       	nop			
    d172:	03 43       	nop			
    d174:	03 43       	nop			
    d176:	03 43       	nop			
    d178:	03 43       	nop			
    d17a:	03 43       	nop			
    d17c:	03 43       	nop			
    d17e:	03 43       	nop			
    d180:	03 43       	nop			
    d182:	03 43       	nop			
    d184:	03 43       	nop			
    d186:	03 43       	nop			
    d188:	03 43       	nop			
    d18a:	03 43       	nop			
    d18c:	03 43       	nop			
    d18e:	03 43       	nop			
    d190:	03 43       	nop			
    d192:	03 43       	nop			
    d194:	03 43       	nop			
    d196:	03 43       	nop			
    d198:	03 43       	nop			
    d19a:	03 43       	nop			
    d19c:	03 43       	nop			
    d19e:	03 43       	nop			
    d1a0:	03 43       	nop			
    d1a2:	03 43       	nop			
    d1a4:	03 43       	nop			
    d1a6:	03 43       	nop			
    d1a8:	03 43       	nop			
    d1aa:	03 43       	nop			
    d1ac:	03 43       	nop			
    d1ae:	03 43       	nop			
    d1b0:	03 43       	nop			
    d1b2:	03 43       	nop			
    d1b4:	03 43       	nop			
    d1b6:	03 43       	nop			
    d1b8:	03 43       	nop			
    d1ba:	03 43       	nop			
    d1bc:	03 43       	nop			
    d1be:	03 43       	nop			
    d1c0:	03 43       	nop			
    d1c2:	03 43       	nop			
    d1c4:	03 43       	nop			
    d1c6:	03 43       	nop			
    d1c8:	03 43       	nop			
    d1ca:	03 43       	nop			
    d1cc:	03 43       	nop			
    d1ce:	03 43       	nop			
    d1d0:	03 43       	nop			
    d1d2:	03 43       	nop			
    d1d4:	03 43       	nop			
    d1d6:	03 43       	nop			
    d1d8:	03 43       	nop			
    d1da:	03 43       	nop			
    d1dc:	03 43       	nop			
    d1de:	03 43       	nop			
    d1e0:	03 43       	nop			
    d1e2:	03 43       	nop			
    d1e4:	03 43       	nop			
    d1e6:	03 43       	nop			
    d1e8:	03 43       	nop			
    d1ea:	03 43       	nop			
    d1ec:	03 43       	nop			
    d1ee:	03 43       	nop			
    d1f0:	03 43       	nop			
    d1f2:	03 43       	nop			
    d1f4:	03 43       	nop			
    d1f6:	03 43       	nop			
    d1f8:	03 43       	nop			
    d1fa:	03 43       	nop			
    d1fc:	03 43       	nop			
    d1fe:	03 43       	nop			
    d200:	03 43       	nop			
    d202:	03 43       	nop			
    d204:	03 43       	nop			
    d206:	03 43       	nop			
    d208:	03 43       	nop			
    d20a:	03 43       	nop			
    d20c:	03 43       	nop			
    d20e:	03 43       	nop			
    d210:	03 43       	nop			
    d212:	03 43       	nop			
    d214:	03 43       	nop			
    d216:	03 43       	nop			
    d218:	03 43       	nop			
    d21a:	03 43       	nop			
    d21c:	03 43       	nop			
    d21e:	03 43       	nop			
    d220:	03 43       	nop			
    d222:	03 43       	nop			
    d224:	03 43       	nop			
    d226:	03 43       	nop			
    d228:	03 43       	nop			
    d22a:	03 43       	nop			
    d22c:	03 43       	nop			
    d22e:	03 43       	nop			
    d230:	03 43       	nop			
    d232:	03 43       	nop			
    d234:	03 43       	nop			
    d236:	03 43       	nop			
    d238:	03 43       	nop			
    d23a:	03 43       	nop			
    d23c:	03 43       	nop			
    d23e:	03 43       	nop			
    d240:	03 43       	nop			
    d242:	03 43       	nop			
    d244:	03 43       	nop			
    d246:	03 43       	nop			
    d248:	03 43       	nop			
    d24a:	03 43       	nop			
    d24c:	03 43       	nop			
    d24e:	03 43       	nop			
    d250:	03 43       	nop			
    d252:	03 43       	nop			
    d254:	03 43       	nop			
    d256:	03 43       	nop			
    d258:	03 43       	nop			
    d25a:	03 43       	nop			
    d25c:	03 43       	nop			
    d25e:	03 43       	nop			
    d260:	03 43       	nop			
    d262:	03 43       	nop			
    d264:	03 43       	nop			
    d266:	03 43       	nop			
    d268:	03 43       	nop			
    d26a:	03 43       	nop			
    d26c:	03 43       	nop			
    d26e:	03 43       	nop			
    d270:	03 43       	nop			
    d272:	03 43       	nop			
    d274:	03 43       	nop			
    d276:	03 43       	nop			
    d278:	03 43       	nop			
    d27a:	03 43       	nop			
    d27c:	03 43       	nop			
    d27e:	03 43       	nop			
    d280:	03 43       	nop			
    d282:	03 43       	nop			
    d284:	03 43       	nop			
    d286:	03 43       	nop			
    d288:	03 43       	nop			
    d28a:	03 43       	nop			
    d28c:	03 43       	nop			
    d28e:	03 43       	nop			
    d290:	03 43       	nop			
    d292:	03 43       	nop			
    d294:	03 43       	nop			
    d296:	03 43       	nop			
    d298:	03 43       	nop			
    d29a:	03 43       	nop			
    d29c:	03 43       	nop			
    d29e:	03 43       	nop			
    d2a0:	03 43       	nop			
    d2a2:	03 43       	nop			
    d2a4:	03 43       	nop			
    d2a6:	03 43       	nop			
    d2a8:	03 43       	nop			
    d2aa:	03 43       	nop			
    d2ac:	03 43       	nop			
    d2ae:	03 43       	nop			
    d2b0:	03 43       	nop			
    d2b2:	03 43       	nop			
    d2b4:	03 43       	nop			
    d2b6:	03 43       	nop			
    d2b8:	03 43       	nop			
    d2ba:	03 43       	nop			
    d2bc:	03 43       	nop			
    d2be:	03 43       	nop			
    d2c0:	03 43       	nop			
    d2c2:	03 43       	nop			
    d2c4:	03 43       	nop			
    d2c6:	03 43       	nop			
    d2c8:	03 43       	nop			
    d2ca:	03 43       	nop			
    d2cc:	03 43       	nop			
    d2ce:	03 43       	nop			
    d2d0:	03 43       	nop			
    d2d2:	03 43       	nop			
    d2d4:	03 43       	nop			
    d2d6:	03 43       	nop			
    d2d8:	03 43       	nop			
    d2da:	03 43       	nop			
    d2dc:	03 43       	nop			
    d2de:	03 43       	nop			
    d2e0:	03 43       	nop			
    d2e2:	03 43       	nop			
    d2e4:	03 43       	nop			
    d2e6:	03 43       	nop			
    d2e8:	03 43       	nop			
    d2ea:	03 43       	nop			
    d2ec:	03 43       	nop			
    d2ee:	03 43       	nop			
    d2f0:	03 43       	nop			
    d2f2:	03 43       	nop			
    d2f4:	03 43       	nop			
    d2f6:	03 43       	nop			
    d2f8:	03 43       	nop			
    d2fa:	03 43       	nop			
    d2fc:	03 43       	nop			
    d2fe:	03 43       	nop			
    d300:	03 43       	nop			
    d302:	03 43       	nop			
    d304:	03 43       	nop			
    d306:	03 43       	nop			
    d308:	03 43       	nop			
    d30a:	03 43       	nop			
    d30c:	03 43       	nop			
    d30e:	03 43       	nop			
    d310:	03 43       	nop			
    d312:	03 43       	nop			
    d314:	03 43       	nop			
    d316:	03 43       	nop			
    d318:	03 43       	nop			
    d31a:	03 43       	nop			
    d31c:	03 43       	nop			
    d31e:	03 43       	nop			
    d320:	03 43       	nop			
    d322:	03 43       	nop			
    d324:	03 43       	nop			
    d326:	03 43       	nop			
    d328:	03 43       	nop			
    d32a:	03 43       	nop			
    d32c:	03 43       	nop			
    d32e:	03 43       	nop			
    d330:	03 43       	nop			
    d332:	03 43       	nop			
    d334:	03 43       	nop			
    d336:	03 43       	nop			
    d338:	03 43       	nop			
    d33a:	03 43       	nop			
    d33c:	03 43       	nop			
    d33e:	03 43       	nop			
    d340:	03 43       	nop			
    d342:	03 43       	nop			
    d344:	03 43       	nop			
    d346:	03 43       	nop			
    d348:	03 43       	nop			
    d34a:	03 43       	nop			
    d34c:	03 43       	nop			
    d34e:	03 43       	nop			
    d350:	03 43       	nop			
    d352:	03 43       	nop			
    d354:	03 43       	nop			
    d356:	03 43       	nop			
    d358:	03 43       	nop			
    d35a:	03 43       	nop			
    d35c:	03 43       	nop			
    d35e:	03 43       	nop			
    d360:	03 43       	nop			
    d362:	03 43       	nop			
    d364:	03 43       	nop			
    d366:	03 43       	nop			
    d368:	03 43       	nop			
    d36a:	03 43       	nop			
    d36c:	03 43       	nop			
    d36e:	03 43       	nop			
    d370:	03 43       	nop			
    d372:	03 43       	nop			
    d374:	03 43       	nop			
    d376:	03 43       	nop			
    d378:	03 43       	nop			
    d37a:	03 43       	nop			
    d37c:	03 43       	nop			
    d37e:	03 43       	nop			
    d380:	03 43       	nop			
    d382:	03 43       	nop			
    d384:	03 43       	nop			
    d386:	03 43       	nop			
    d388:	03 43       	nop			
    d38a:	03 43       	nop			
    d38c:	03 43       	nop			
    d38e:	03 43       	nop			
    d390:	03 43       	nop			
    d392:	03 43       	nop			
    d394:	03 43       	nop			
    d396:	03 43       	nop			
    d398:	03 43       	nop			
    d39a:	03 43       	nop			
    d39c:	03 43       	nop			
    d39e:	03 43       	nop			
    d3a0:	03 43       	nop			
    d3a2:	03 43       	nop			
    d3a4:	03 43       	nop			
    d3a6:	03 43       	nop			
    d3a8:	03 43       	nop			
    d3aa:	03 43       	nop			
    d3ac:	03 43       	nop			
    d3ae:	03 43       	nop			
    d3b0:	03 43       	nop			
    d3b2:	03 43       	nop			
    d3b4:	03 43       	nop			
    d3b6:	03 43       	nop			
    d3b8:	03 43       	nop			
    d3ba:	03 43       	nop			
    d3bc:	03 43       	nop			
    d3be:	03 43       	nop			
    d3c0:	03 43       	nop			
    d3c2:	03 43       	nop			
    d3c4:	03 43       	nop			
    d3c6:	03 43       	nop			
    d3c8:	03 43       	nop			
    d3ca:	03 43       	nop			
    d3cc:	03 43       	nop			
    d3ce:	03 43       	nop			
    d3d0:	03 43       	nop			
    d3d2:	03 43       	nop			
    d3d4:	03 43       	nop			
    d3d6:	03 43       	nop			
    d3d8:	03 43       	nop			
    d3da:	03 43       	nop			
    d3dc:	03 43       	nop			
    d3de:	03 43       	nop			
    d3e0:	03 43       	nop			
    d3e2:	03 43       	nop			
    d3e4:	03 43       	nop			
    d3e6:	03 43       	nop			
    d3e8:	03 43       	nop			
    d3ea:	03 43       	nop			
    d3ec:	03 43       	nop			
    d3ee:	03 43       	nop			
    d3f0:	03 43       	nop			
    d3f2:	03 43       	nop			
    d3f4:	03 43       	nop			
    d3f6:	03 43       	nop			
    d3f8:	03 43       	nop			
    d3fa:	03 43       	nop			
    d3fc:	03 43       	nop			
    d3fe:	03 43       	nop			
    d400:	03 43       	nop			
    d402:	03 43       	nop			
    d404:	03 43       	nop			
    d406:	03 43       	nop			
    d408:	03 43       	nop			
    d40a:	03 43       	nop			
    d40c:	03 43       	nop			
    d40e:	03 43       	nop			
    d410:	03 43       	nop			
    d412:	03 43       	nop			
    d414:	03 43       	nop			
    d416:	03 43       	nop			
    d418:	03 43       	nop			
    d41a:	03 43       	nop			
    d41c:	03 43       	nop			
    d41e:	03 43       	nop			
    d420:	03 43       	nop			
    d422:	03 43       	nop			
    d424:	03 43       	nop			
    d426:	03 43       	nop			
    d428:	03 43       	nop			
    d42a:	03 43       	nop			
    d42c:	03 43       	nop			
    d42e:	03 43       	nop			
    d430:	03 43       	nop			
    d432:	03 43       	nop			
    d434:	03 43       	nop			
    d436:	03 43       	nop			
    d438:	03 43       	nop			
    d43a:	03 43       	nop			
    d43c:	03 43       	nop			
    d43e:	03 43       	nop			
    d440:	03 43       	nop			
    d442:	03 43       	nop			
    d444:	03 43       	nop			
    d446:	03 43       	nop			
    d448:	03 43       	nop			
    d44a:	03 43       	nop			
    d44c:	03 43       	nop			
    d44e:	03 43       	nop			
    d450:	03 43       	nop			
    d452:	03 43       	nop			
    d454:	03 43       	nop			
    d456:	03 43       	nop			
    d458:	03 43       	nop			
    d45a:	03 43       	nop			
    d45c:	03 43       	nop			
    d45e:	03 43       	nop			
    d460:	03 43       	nop			
    d462:	03 43       	nop			
    d464:	03 43       	nop			
    d466:	03 43       	nop			
    d468:	03 43       	nop			
    d46a:	03 43       	nop			
    d46c:	03 43       	nop			
    d46e:	03 43       	nop			
    d470:	03 43       	nop			
    d472:	03 43       	nop			
    d474:	03 43       	nop			
    d476:	03 43       	nop			
    d478:	03 43       	nop			
    d47a:	03 43       	nop			
    d47c:	03 43       	nop			
    d47e:	03 43       	nop			
    d480:	03 43       	nop			
    d482:	03 43       	nop			
    d484:	03 43       	nop			
    d486:	03 43       	nop			
    d488:	03 43       	nop			
    d48a:	03 43       	nop			
    d48c:	03 43       	nop			
    d48e:	03 43       	nop			
    d490:	03 43       	nop			
    d492:	03 43       	nop			
    d494:	03 43       	nop			
    d496:	03 43       	nop			
    d498:	03 43       	nop			
    d49a:	03 43       	nop			
    d49c:	03 43       	nop			
    d49e:	03 43       	nop			
    d4a0:	03 43       	nop			
    d4a2:	03 43       	nop			
    d4a4:	03 43       	nop			
    d4a6:	03 43       	nop			
    d4a8:	03 43       	nop			
    d4aa:	03 43       	nop			
    d4ac:	03 43       	nop			
    d4ae:	03 43       	nop			
    d4b0:	03 43       	nop			
    d4b2:	03 43       	nop			
    d4b4:	03 43       	nop			
    d4b6:	03 43       	nop			
    d4b8:	03 43       	nop			
    d4ba:	03 43       	nop			
    d4bc:	03 43       	nop			
    d4be:	03 43       	nop			
    d4c0:	03 43       	nop			
    d4c2:	03 43       	nop			
    d4c4:	03 43       	nop			
    d4c6:	03 43       	nop			
    d4c8:	03 43       	nop			
    d4ca:	03 43       	nop			
    d4cc:	03 43       	nop			
    d4ce:	03 43       	nop			
    d4d0:	03 43       	nop			
    d4d2:	03 43       	nop			
    d4d4:	03 43       	nop			
    d4d6:	03 43       	nop			
    d4d8:	03 43       	nop			
    d4da:	03 43       	nop			
    d4dc:	03 43       	nop			
    d4de:	03 43       	nop			
    d4e0:	03 43       	nop			
    d4e2:	03 43       	nop			
    d4e4:	03 43       	nop			
    d4e6:	03 43       	nop			
    d4e8:	03 43       	nop			
    d4ea:	03 43       	nop			
    d4ec:	03 43       	nop			
    d4ee:	03 43       	nop			
    d4f0:	03 43       	nop			
    d4f2:	03 43       	nop			
    d4f4:	03 43       	nop			
    d4f6:	03 43       	nop			
    d4f8:	03 43       	nop			
    d4fa:	03 43       	nop			
    d4fc:	03 43       	nop			
    d4fe:	03 43       	nop			
    d500:	03 43       	nop			
    d502:	03 43       	nop			
    d504:	03 43       	nop			
    d506:	03 43       	nop			
    d508:	03 43       	nop			
    d50a:	03 43       	nop			
    d50c:	03 43       	nop			
    d50e:	03 43       	nop			
    d510:	03 43       	nop			
    d512:	03 43       	nop			
    d514:	03 43       	nop			
    d516:	03 43       	nop			
    d518:	03 43       	nop			
    d51a:	03 43       	nop			
    d51c:	03 43       	nop			
    d51e:	03 43       	nop			
    d520:	03 43       	nop			
    d522:	03 43       	nop			
    d524:	03 43       	nop			
    d526:	03 43       	nop			
    d528:	03 43       	nop			
    d52a:	03 43       	nop			
    d52c:	03 43       	nop			
    d52e:	03 43       	nop			
    d530:	03 43       	nop			
    d532:	03 43       	nop			
    d534:	03 43       	nop			
    d536:	03 43       	nop			
    d538:	03 43       	nop			
    d53a:	03 43       	nop			
    d53c:	03 43       	nop			
    d53e:	03 43       	nop			
    d540:	03 43       	nop			
    d542:	03 43       	nop			
    d544:	03 43       	nop			
    d546:	03 43       	nop			
    d548:	03 43       	nop			
    d54a:	03 43       	nop			
    d54c:	03 43       	nop			
    d54e:	03 43       	nop			
    d550:	03 43       	nop			
    d552:	03 43       	nop			
    d554:	03 43       	nop			
    d556:	03 43       	nop			
    d558:	03 43       	nop			
    d55a:	03 43       	nop			
    d55c:	03 43       	nop			
    d55e:	03 43       	nop			
    d560:	03 43       	nop			
    d562:	03 43       	nop			
    d564:	03 43       	nop			
    d566:	03 43       	nop			
    d568:	03 43       	nop			
    d56a:	03 43       	nop			
    d56c:	03 43       	nop			
    d56e:	03 43       	nop			
    d570:	03 43       	nop			
    d572:	03 43       	nop			
    d574:	03 43       	nop			
    d576:	03 43       	nop			
    d578:	03 43       	nop			
    d57a:	03 43       	nop			
    d57c:	03 43       	nop			
    d57e:	03 43       	nop			
    d580:	03 43       	nop			
    d582:	03 43       	nop			
    d584:	03 43       	nop			
    d586:	03 43       	nop			
    d588:	03 43       	nop			
    d58a:	03 43       	nop			
    d58c:	03 43       	nop			
    d58e:	03 43       	nop			
    d590:	03 43       	nop			
    d592:	03 43       	nop			
    d594:	03 43       	nop			
    d596:	03 43       	nop			
    d598:	03 43       	nop			
    d59a:	03 43       	nop			
    d59c:	03 43       	nop			
    d59e:	03 43       	nop			
    d5a0:	03 43       	nop			
    d5a2:	03 43       	nop			
    d5a4:	03 43       	nop			
    d5a6:	03 43       	nop			
    d5a8:	03 43       	nop			
    d5aa:	03 43       	nop			
    d5ac:	03 43       	nop			
    d5ae:	03 43       	nop			
    d5b0:	03 43       	nop			
    d5b2:	03 43       	nop			
    d5b4:	03 43       	nop			
    d5b6:	03 43       	nop			
    d5b8:	03 43       	nop			
    d5ba:	03 43       	nop			
    d5bc:	03 43       	nop			
    d5be:	03 43       	nop			
    d5c0:	03 43       	nop			
    d5c2:	03 43       	nop			
    d5c4:	03 43       	nop			
    d5c6:	03 43       	nop			
    d5c8:	03 43       	nop			
    d5ca:	03 43       	nop			
    d5cc:	03 43       	nop			
    d5ce:	03 43       	nop			
    d5d0:	03 43       	nop			
    d5d2:	03 43       	nop			
    d5d4:	03 43       	nop			
    d5d6:	03 43       	nop			
    d5d8:	03 43       	nop			
    d5da:	03 43       	nop			
    d5dc:	03 43       	nop			
    d5de:	03 43       	nop			
    d5e0:	03 43       	nop			
    d5e2:	03 43       	nop			
    d5e4:	03 43       	nop			
    d5e6:	03 43       	nop			
    d5e8:	03 43       	nop			
    d5ea:	03 43       	nop			
    d5ec:	03 43       	nop			
    d5ee:	03 43       	nop			
    d5f0:	03 43       	nop			
    d5f2:	03 43       	nop			
    d5f4:	03 43       	nop			
    d5f6:	03 43       	nop			
    d5f8:	03 43       	nop			
    d5fa:	03 43       	nop			
    d5fc:	03 43       	nop			
    d5fe:	03 43       	nop			
    d600:	03 43       	nop			
    d602:	03 43       	nop			
    d604:	03 43       	nop			
    d606:	03 43       	nop			
    d608:	03 43       	nop			
    d60a:	03 43       	nop			
    d60c:	03 43       	nop			
    d60e:	03 43       	nop			
    d610:	03 43       	nop			
    d612:	03 43       	nop			
    d614:	03 43       	nop			
    d616:	03 43       	nop			
    d618:	03 43       	nop			
    d61a:	03 43       	nop			
    d61c:	03 43       	nop			
    d61e:	03 43       	nop			
    d620:	03 43       	nop			
    d622:	03 43       	nop			
    d624:	03 43       	nop			
    d626:	03 43       	nop			
    d628:	03 43       	nop			
    d62a:	03 43       	nop			
    d62c:	03 43       	nop			
    d62e:	03 43       	nop			
    d630:	03 43       	nop			
    d632:	03 43       	nop			
    d634:	03 43       	nop			
    d636:	03 43       	nop			
    d638:	03 43       	nop			
    d63a:	03 43       	nop			
    d63c:	03 43       	nop			
    d63e:	03 43       	nop			
    d640:	03 43       	nop			
    d642:	03 43       	nop			
    d644:	03 43       	nop			
    d646:	03 43       	nop			
    d648:	03 43       	nop			
    d64a:	03 43       	nop			
    d64c:	03 43       	nop			
    d64e:	03 43       	nop			
    d650:	03 43       	nop			
    d652:	03 43       	nop			
    d654:	03 43       	nop			
    d656:	03 43       	nop			
    d658:	03 43       	nop			
    d65a:	03 43       	nop			
    d65c:	03 43       	nop			
    d65e:	03 43       	nop			
    d660:	03 43       	nop			
    d662:	03 43       	nop			
    d664:	03 43       	nop			
    d666:	03 43       	nop			
    d668:	03 43       	nop			
    d66a:	03 43       	nop			
    d66c:	03 43       	nop			
    d66e:	03 43       	nop			
    d670:	03 43       	nop			
    d672:	03 43       	nop			
    d674:	03 43       	nop			
    d676:	03 43       	nop			
    d678:	03 43       	nop			
    d67a:	03 43       	nop			
    d67c:	03 43       	nop			
    d67e:	03 43       	nop			
    d680:	03 43       	nop			
    d682:	03 43       	nop			
    d684:	03 43       	nop			
    d686:	03 43       	nop			
    d688:	03 43       	nop			
    d68a:	03 43       	nop			
    d68c:	03 43       	nop			
    d68e:	03 43       	nop			
    d690:	03 43       	nop			
    d692:	03 43       	nop			
    d694:	03 43       	nop			
    d696:	03 43       	nop			
    d698:	03 43       	nop			
    d69a:	03 43       	nop			
    d69c:	03 43       	nop			
    d69e:	03 43       	nop			
    d6a0:	03 43       	nop			
    d6a2:	03 43       	nop			
    d6a4:	03 43       	nop			
    d6a6:	03 43       	nop			
    d6a8:	03 43       	nop			
    d6aa:	03 43       	nop			
    d6ac:	03 43       	nop			
    d6ae:	03 43       	nop			
    d6b0:	03 43       	nop			
    d6b2:	03 43       	nop			
    d6b4:	03 43       	nop			
    d6b6:	03 43       	nop			
    d6b8:	03 43       	nop			
    d6ba:	03 43       	nop			
    d6bc:	03 43       	nop			
    d6be:	03 43       	nop			
    d6c0:	03 43       	nop			
    d6c2:	03 43       	nop			
    d6c4:	03 43       	nop			
    d6c6:	03 43       	nop			
    d6c8:	03 43       	nop			
    d6ca:	03 43       	nop			
    d6cc:	03 43       	nop			
    d6ce:	03 43       	nop			
    d6d0:	03 43       	nop			
    d6d2:	03 43       	nop			
    d6d4:	03 43       	nop			
    d6d6:	03 43       	nop			
    d6d8:	03 43       	nop			
    d6da:	03 43       	nop			
    d6dc:	03 43       	nop			
    d6de:	03 43       	nop			
    d6e0:	03 43       	nop			
    d6e2:	03 43       	nop			
    d6e4:	03 43       	nop			
    d6e6:	03 43       	nop			
    d6e8:	03 43       	nop			
    d6ea:	03 43       	nop			
    d6ec:	03 43       	nop			
    d6ee:	03 43       	nop			
    d6f0:	03 43       	nop			
    d6f2:	03 43       	nop			
    d6f4:	03 43       	nop			
    d6f6:	03 43       	nop			
    d6f8:	03 43       	nop			
    d6fa:	03 43       	nop			
    d6fc:	03 43       	nop			
    d6fe:	03 43       	nop			
    d700:	03 43       	nop			
    d702:	03 43       	nop			
    d704:	03 43       	nop			
    d706:	03 43       	nop			
    d708:	03 43       	nop			
    d70a:	03 43       	nop			
    d70c:	03 43       	nop			
    d70e:	03 43       	nop			
    d710:	03 43       	nop			
    d712:	03 43       	nop			
    d714:	03 43       	nop			
    d716:	03 43       	nop			
    d718:	03 43       	nop			
    d71a:	03 43       	nop			
    d71c:	03 43       	nop			
    d71e:	03 43       	nop			
    d720:	03 43       	nop			
    d722:	03 43       	nop			
    d724:	03 43       	nop			
    d726:	03 43       	nop			
    d728:	03 43       	nop			
    d72a:	03 43       	nop			
    d72c:	03 43       	nop			
    d72e:	03 43       	nop			
    d730:	03 43       	nop			
    d732:	03 43       	nop			
    d734:	03 43       	nop			
    d736:	03 43       	nop			
    d738:	03 43       	nop			
    d73a:	03 43       	nop			
    d73c:	03 43       	nop			
    d73e:	03 43       	nop			
    d740:	03 43       	nop			
    d742:	03 43       	nop			
    d744:	03 43       	nop			
    d746:	03 43       	nop			
    d748:	03 43       	nop			
    d74a:	03 43       	nop			
    d74c:	03 43       	nop			
    d74e:	03 43       	nop			
    d750:	03 43       	nop			
    d752:	03 43       	nop			
    d754:	03 43       	nop			
    d756:	03 43       	nop			
    d758:	03 43       	nop			
    d75a:	03 43       	nop			
    d75c:	03 43       	nop			
    d75e:	03 43       	nop			
    d760:	03 43       	nop			
    d762:	03 43       	nop			
    d764:	03 43       	nop			
    d766:	03 43       	nop			
    d768:	03 43       	nop			
    d76a:	03 43       	nop			
    d76c:	03 43       	nop			
    d76e:	03 43       	nop			
    d770:	03 43       	nop			
    d772:	03 43       	nop			
    d774:	03 43       	nop			
    d776:	03 43       	nop			
    d778:	03 43       	nop			
    d77a:	03 43       	nop			
    d77c:	03 43       	nop			
    d77e:	03 43       	nop			
    d780:	03 43       	nop			
    d782:	03 43       	nop			
    d784:	03 43       	nop			
    d786:	03 43       	nop			
    d788:	03 43       	nop			
    d78a:	03 43       	nop			
    d78c:	03 43       	nop			
    d78e:	03 43       	nop			
    d790:	03 43       	nop			
    d792:	03 43       	nop			
    d794:	03 43       	nop			
    d796:	03 43       	nop			
    d798:	03 43       	nop			
    d79a:	03 43       	nop			
    d79c:	03 43       	nop			
    d79e:	03 43       	nop			
    d7a0:	03 43       	nop			
    d7a2:	03 43       	nop			
    d7a4:	03 43       	nop			
    d7a6:	03 43       	nop			
    d7a8:	03 43       	nop			
    d7aa:	03 43       	nop			
    d7ac:	03 43       	nop			
    d7ae:	03 43       	nop			
    d7b0:	03 43       	nop			
    d7b2:	03 43       	nop			
    d7b4:	03 43       	nop			
    d7b6:	03 43       	nop			
    d7b8:	03 43       	nop			
    d7ba:	03 43       	nop			
    d7bc:	03 43       	nop			
    d7be:	03 43       	nop			
    d7c0:	03 43       	nop			
    d7c2:	03 43       	nop			
    d7c4:	03 43       	nop			
    d7c6:	03 43       	nop			
    d7c8:	03 43       	nop			
    d7ca:	03 43       	nop			
    d7cc:	03 43       	nop			
    d7ce:	03 43       	nop			
    d7d0:	03 43       	nop			
    d7d2:	03 43       	nop			
    d7d4:	03 43       	nop			
    d7d6:	03 43       	nop			
    d7d8:	03 43       	nop			
    d7da:	03 43       	nop			
    d7dc:	03 43       	nop			
    d7de:	03 43       	nop			
    d7e0:	03 43       	nop			
    d7e2:	03 43       	nop			
    d7e4:	03 43       	nop			
    d7e6:	03 43       	nop			
    d7e8:	03 43       	nop			
    d7ea:	03 43       	nop			
    d7ec:	03 43       	nop			
    d7ee:	03 43       	nop			
    d7f0:	03 43       	nop			
    d7f2:	03 43       	nop			
    d7f4:	03 43       	nop			
    d7f6:	03 43       	nop			
    d7f8:	03 43       	nop			
    d7fa:	03 43       	nop			
    d7fc:	03 43       	nop			
    d7fe:	03 43       	nop			
    d800:	03 43       	nop			
    d802:	03 43       	nop			
    d804:	03 43       	nop			
    d806:	03 43       	nop			
    d808:	03 43       	nop			
    d80a:	03 43       	nop			
    d80c:	03 43       	nop			
    d80e:	03 43       	nop			
    d810:	03 43       	nop			
    d812:	03 43       	nop			
    d814:	03 43       	nop			
    d816:	03 43       	nop			
    d818:	03 43       	nop			
    d81a:	03 43       	nop			
    d81c:	03 43       	nop			
    d81e:	03 43       	nop			
    d820:	03 43       	nop			
    d822:	03 43       	nop			
    d824:	03 43       	nop			
    d826:	03 43       	nop			
    d828:	03 43       	nop			
    d82a:	03 43       	nop			
    d82c:	03 43       	nop			
    d82e:	03 43       	nop			
    d830:	03 43       	nop			
    d832:	03 43       	nop			
    d834:	03 43       	nop			
    d836:	03 43       	nop			
    d838:	03 43       	nop			
    d83a:	03 43       	nop			
    d83c:	03 43       	nop			
    d83e:	03 43       	nop			
    d840:	03 43       	nop			
    d842:	03 43       	nop			
    d844:	03 43       	nop			
    d846:	03 43       	nop			
    d848:	03 43       	nop			
    d84a:	03 43       	nop			
    d84c:	03 43       	nop			
    d84e:	03 43       	nop			
    d850:	03 43       	nop			
    d852:	03 43       	nop			
    d854:	03 43       	nop			
    d856:	03 43       	nop			
    d858:	03 43       	nop			
    d85a:	03 43       	nop			
    d85c:	03 43       	nop			
    d85e:	03 43       	nop			
    d860:	03 43       	nop			
    d862:	03 43       	nop			
    d864:	03 43       	nop			
    d866:	03 43       	nop			
    d868:	03 43       	nop			
    d86a:	03 43       	nop			
    d86c:	03 43       	nop			
    d86e:	03 43       	nop			
    d870:	03 43       	nop			
    d872:	03 43       	nop			
    d874:	03 43       	nop			
    d876:	03 43       	nop			
    d878:	03 43       	nop			
    d87a:	03 43       	nop			
    d87c:	03 43       	nop			
    d87e:	03 43       	nop			
    d880:	03 43       	nop			
    d882:	03 43       	nop			
    d884:	03 43       	nop			
    d886:	03 43       	nop			
    d888:	03 43       	nop			
    d88a:	03 43       	nop			
    d88c:	03 43       	nop			
    d88e:	03 43       	nop			
    d890:	03 43       	nop			
    d892:	03 43       	nop			
    d894:	03 43       	nop			
    d896:	03 43       	nop			
    d898:	03 43       	nop			
    d89a:	03 43       	nop			
    d89c:	03 43       	nop			
    d89e:	03 43       	nop			
    d8a0:	03 43       	nop			
    d8a2:	03 43       	nop			
    d8a4:	03 43       	nop			
    d8a6:	03 43       	nop			
    d8a8:	03 43       	nop			
    d8aa:	03 43       	nop			
    d8ac:	03 43       	nop			
    d8ae:	03 43       	nop			
    d8b0:	03 43       	nop			
    d8b2:	03 43       	nop			
    d8b4:	03 43       	nop			
    d8b6:	03 43       	nop			
    d8b8:	03 43       	nop			
    d8ba:	03 43       	nop			
    d8bc:	03 43       	nop			
    d8be:	03 43       	nop			
    d8c0:	03 43       	nop			
    d8c2:	03 43       	nop			
    d8c4:	03 43       	nop			
    d8c6:	03 43       	nop			
    d8c8:	03 43       	nop			
    d8ca:	03 43       	nop			
    d8cc:	03 43       	nop			
    d8ce:	03 43       	nop			
    d8d0:	03 43       	nop			
    d8d2:	03 43       	nop			
    d8d4:	03 43       	nop			
    d8d6:	03 43       	nop			
    d8d8:	03 43       	nop			
    d8da:	03 43       	nop			
    d8dc:	03 43       	nop			
    d8de:	03 43       	nop			
    d8e0:	03 43       	nop			
    d8e2:	03 43       	nop			
    d8e4:	03 43       	nop			
    d8e6:	03 43       	nop			
    d8e8:	03 43       	nop			
    d8ea:	03 43       	nop			
    d8ec:	03 43       	nop			
    d8ee:	03 43       	nop			
    d8f0:	03 43       	nop			
    d8f2:	03 43       	nop			
    d8f4:	03 43       	nop			
    d8f6:	03 43       	nop			
    d8f8:	03 43       	nop			
    d8fa:	03 43       	nop			
    d8fc:	03 43       	nop			
    d8fe:	03 43       	nop			
    d900:	03 43       	nop			
    d902:	03 43       	nop			
    d904:	03 43       	nop			
    d906:	03 43       	nop			
    d908:	03 43       	nop			
    d90a:	03 43       	nop			
    d90c:	03 43       	nop			
    d90e:	03 43       	nop			
    d910:	03 43       	nop			
    d912:	03 43       	nop			
    d914:	03 43       	nop			
    d916:	03 43       	nop			
    d918:	03 43       	nop			
    d91a:	03 43       	nop			
    d91c:	03 43       	nop			
    d91e:	03 43       	nop			
    d920:	03 43       	nop			
    d922:	03 43       	nop			
    d924:	03 43       	nop			
    d926:	03 43       	nop			
    d928:	03 43       	nop			
    d92a:	03 43       	nop			
    d92c:	03 43       	nop			
    d92e:	03 43       	nop			
    d930:	03 43       	nop			
    d932:	03 43       	nop			
    d934:	03 43       	nop			
    d936:	03 43       	nop			
    d938:	03 43       	nop			
    d93a:	03 43       	nop			
    d93c:	03 43       	nop			
    d93e:	03 43       	nop			
    d940:	03 43       	nop			
    d942:	03 43       	nop			
    d944:	03 43       	nop			
    d946:	03 43       	nop			
    d948:	03 43       	nop			
    d94a:	03 43       	nop			
    d94c:	03 43       	nop			
    d94e:	03 43       	nop			
    d950:	03 43       	nop			
    d952:	03 43       	nop			
    d954:	03 43       	nop			
    d956:	03 43       	nop			
    d958:	03 43       	nop			
    d95a:	03 43       	nop			
    d95c:	03 43       	nop			
    d95e:	03 43       	nop			
    d960:	03 43       	nop			
    d962:	03 43       	nop			
    d964:	03 43       	nop			
    d966:	03 43       	nop			
    d968:	03 43       	nop			
    d96a:	03 43       	nop			
    d96c:	03 43       	nop			
    d96e:	03 43       	nop			
    d970:	03 43       	nop			
    d972:	03 43       	nop			
    d974:	03 43       	nop			
    d976:	03 43       	nop			
    d978:	03 43       	nop			
    d97a:	03 43       	nop			
    d97c:	03 43       	nop			
    d97e:	03 43       	nop			
    d980:	03 43       	nop			
    d982:	03 43       	nop			
    d984:	03 43       	nop			
    d986:	03 43       	nop			
    d988:	03 43       	nop			
    d98a:	03 43       	nop			
    d98c:	03 43       	nop			
    d98e:	03 43       	nop			
    d990:	03 43       	nop			
    d992:	03 43       	nop			
    d994:	03 43       	nop			
    d996:	03 43       	nop			
    d998:	03 43       	nop			
    d99a:	03 43       	nop			
    d99c:	03 43       	nop			
    d99e:	03 43       	nop			
    d9a0:	03 43       	nop			
    d9a2:	03 43       	nop			
    d9a4:	03 43       	nop			
    d9a6:	03 43       	nop			
    d9a8:	03 43       	nop			
    d9aa:	03 43       	nop			
    d9ac:	03 43       	nop			
    d9ae:	03 43       	nop			
    d9b0:	03 43       	nop			
    d9b2:	03 43       	nop			
    d9b4:	03 43       	nop			
    d9b6:	03 43       	nop			
    d9b8:	03 43       	nop			
    d9ba:	03 43       	nop			
    d9bc:	03 43       	nop			
    d9be:	03 43       	nop			
    d9c0:	03 43       	nop			
    d9c2:	03 43       	nop			
    d9c4:	03 43       	nop			
    d9c6:	03 43       	nop			
    d9c8:	03 43       	nop			
    d9ca:	03 43       	nop			
    d9cc:	03 43       	nop			
    d9ce:	03 43       	nop			
    d9d0:	03 43       	nop			
    d9d2:	03 43       	nop			
    d9d4:	03 43       	nop			
    d9d6:	03 43       	nop			
    d9d8:	03 43       	nop			
    d9da:	03 43       	nop			
    d9dc:	03 43       	nop			
    d9de:	03 43       	nop			
    d9e0:	03 43       	nop			
    d9e2:	03 43       	nop			
    d9e4:	03 43       	nop			
    d9e6:	03 43       	nop			
    d9e8:	03 43       	nop			
    d9ea:	03 43       	nop			
    d9ec:	03 43       	nop			
    d9ee:	03 43       	nop			
    d9f0:	03 43       	nop			
    d9f2:	03 43       	nop			
    d9f4:	03 43       	nop			
    d9f6:	03 43       	nop			
    d9f8:	03 43       	nop			
    d9fa:	03 43       	nop			
    d9fc:	03 43       	nop			
    d9fe:	03 43       	nop			
    da00:	03 43       	nop			
    da02:	03 43       	nop			
    da04:	03 43       	nop			
    da06:	03 43       	nop			
    da08:	03 43       	nop			
    da0a:	03 43       	nop			
    da0c:	03 43       	nop			
    da0e:	03 43       	nop			
    da10:	03 43       	nop			
    da12:	03 43       	nop			
    da14:	03 43       	nop			
    da16:	03 43       	nop			
    da18:	03 43       	nop			
    da1a:	03 43       	nop			
    da1c:	03 43       	nop			
    da1e:	03 43       	nop			
    da20:	03 43       	nop			
    da22:	03 43       	nop			
    da24:	03 43       	nop			
    da26:	03 43       	nop			
    da28:	03 43       	nop			
    da2a:	03 43       	nop			
    da2c:	03 43       	nop			
    da2e:	03 43       	nop			
    da30:	03 43       	nop			
    da32:	03 43       	nop			
    da34:	03 43       	nop			
    da36:	03 43       	nop			
    da38:	03 43       	nop			
    da3a:	03 43       	nop			
    da3c:	03 43       	nop			
    da3e:	03 43       	nop			
    da40:	03 43       	nop			
    da42:	03 43       	nop			
    da44:	03 43       	nop			
    da46:	03 43       	nop			
    da48:	03 43       	nop			
    da4a:	03 43       	nop			
    da4c:	03 43       	nop			
    da4e:	03 43       	nop			
    da50:	03 43       	nop			
    da52:	03 43       	nop			
    da54:	03 43       	nop			
    da56:	03 43       	nop			
    da58:	03 43       	nop			
    da5a:	03 43       	nop			
    da5c:	03 43       	nop			
    da5e:	03 43       	nop			
    da60:	03 43       	nop			
    da62:	03 43       	nop			
    da64:	03 43       	nop			
    da66:	03 43       	nop			
    da68:	03 43       	nop			
    da6a:	03 43       	nop			
    da6c:	03 43       	nop			
    da6e:	03 43       	nop			
    da70:	03 43       	nop			
    da72:	03 43       	nop			
    da74:	03 43       	nop			
    da76:	03 43       	nop			
    da78:	03 43       	nop			
    da7a:	03 43       	nop			
    da7c:	03 43       	nop			
    da7e:	03 43       	nop			
    da80:	03 43       	nop			
    da82:	03 43       	nop			
    da84:	03 43       	nop			
    da86:	03 43       	nop			
    da88:	03 43       	nop			
    da8a:	03 43       	nop			
    da8c:	03 43       	nop			
    da8e:	03 43       	nop			
    da90:	03 43       	nop			
    da92:	03 43       	nop			
    da94:	03 43       	nop			
    da96:	03 43       	nop			
    da98:	03 43       	nop			
    da9a:	03 43       	nop			
    da9c:	03 43       	nop			
    da9e:	03 43       	nop			
    daa0:	03 43       	nop			
    daa2:	03 43       	nop			
    daa4:	03 43       	nop			
    daa6:	03 43       	nop			
    daa8:	03 43       	nop			
    daaa:	03 43       	nop			
    daac:	03 43       	nop			
    daae:	03 43       	nop			
    dab0:	03 43       	nop			
    dab2:	03 43       	nop			
    dab4:	03 43       	nop			
    dab6:	03 43       	nop			
    dab8:	03 43       	nop			
    daba:	03 43       	nop			
    dabc:	03 43       	nop			
    dabe:	03 43       	nop			
    dac0:	03 43       	nop			
    dac2:	03 43       	nop			
    dac4:	03 43       	nop			
    dac6:	03 43       	nop			
    dac8:	03 43       	nop			
    daca:	03 43       	nop			
    dacc:	03 43       	nop			
    dace:	03 43       	nop			
    dad0:	03 43       	nop			
    dad2:	03 43       	nop			
    dad4:	03 43       	nop			
    dad6:	03 43       	nop			
    dad8:	03 43       	nop			
    dada:	03 43       	nop			
    dadc:	03 43       	nop			
    dade:	03 43       	nop			
    dae0:	03 43       	nop			
    dae2:	03 43       	nop			
    dae4:	03 43       	nop			
    dae6:	03 43       	nop			
    dae8:	03 43       	nop			
    daea:	03 43       	nop			
    daec:	03 43       	nop			
    daee:	03 43       	nop			
    daf0:	03 43       	nop			
    daf2:	03 43       	nop			
    daf4:	03 43       	nop			
    daf6:	03 43       	nop			
    daf8:	03 43       	nop			
    dafa:	03 43       	nop			
    dafc:	03 43       	nop			
    dafe:	03 43       	nop			
    db00:	03 43       	nop			
    db02:	03 43       	nop			
    db04:	03 43       	nop			
    db06:	03 43       	nop			
    db08:	03 43       	nop			
    db0a:	03 43       	nop			
    db0c:	03 43       	nop			
    db0e:	03 43       	nop			
    db10:	03 43       	nop			
    db12:	03 43       	nop			
    db14:	03 43       	nop			
    db16:	03 43       	nop			
    db18:	03 43       	nop			
    db1a:	03 43       	nop			
    db1c:	03 43       	nop			
    db1e:	03 43       	nop			
    db20:	03 43       	nop			
    db22:	03 43       	nop			
    db24:	03 43       	nop			
    db26:	03 43       	nop			
    db28:	03 43       	nop			
    db2a:	03 43       	nop			
    db2c:	03 43       	nop			
    db2e:	03 43       	nop			
    db30:	03 43       	nop			
    db32:	03 43       	nop			
    db34:	03 43       	nop			
    db36:	03 43       	nop			
    db38:	03 43       	nop			
    db3a:	03 43       	nop			
    db3c:	03 43       	nop			
    db3e:	03 43       	nop			
    db40:	03 43       	nop			
    db42:	03 43       	nop			
    db44:	03 43       	nop			
    db46:	03 43       	nop			
    db48:	03 43       	nop			
    db4a:	03 43       	nop			
    db4c:	03 43       	nop			
    db4e:	03 43       	nop			
    db50:	03 43       	nop			
    db52:	03 43       	nop			
    db54:	03 43       	nop			
    db56:	03 43       	nop			
    db58:	03 43       	nop			
    db5a:	03 43       	nop			
    db5c:	03 43       	nop			
    db5e:	03 43       	nop			
    db60:	03 43       	nop			
    db62:	03 43       	nop			
    db64:	03 43       	nop			
    db66:	03 43       	nop			
    db68:	03 43       	nop			
    db6a:	03 43       	nop			
    db6c:	03 43       	nop			
    db6e:	03 43       	nop			
    db70:	03 43       	nop			
    db72:	03 43       	nop			
    db74:	03 43       	nop			
    db76:	03 43       	nop			
    db78:	03 43       	nop			
    db7a:	03 43       	nop			
    db7c:	03 43       	nop			
    db7e:	03 43       	nop			
    db80:	03 43       	nop			
    db82:	03 43       	nop			
    db84:	03 43       	nop			
    db86:	03 43       	nop			
    db88:	03 43       	nop			
    db8a:	03 43       	nop			
    db8c:	03 43       	nop			
    db8e:	03 43       	nop			
    db90:	03 43       	nop			
    db92:	03 43       	nop			
    db94:	03 43       	nop			
    db96:	03 43       	nop			
    db98:	03 43       	nop			
    db9a:	03 43       	nop			
    db9c:	03 43       	nop			
    db9e:	03 43       	nop			
    dba0:	03 43       	nop			
    dba2:	03 43       	nop			
    dba4:	03 43       	nop			
    dba6:	03 43       	nop			
    dba8:	03 43       	nop			
    dbaa:	03 43       	nop			
    dbac:	03 43       	nop			
    dbae:	03 43       	nop			
    dbb0:	03 43       	nop			
    dbb2:	03 43       	nop			
    dbb4:	03 43       	nop			
    dbb6:	03 43       	nop			
    dbb8:	03 43       	nop			
    dbba:	03 43       	nop			
    dbbc:	03 43       	nop			
    dbbe:	03 43       	nop			
    dbc0:	03 43       	nop			
    dbc2:	03 43       	nop			
    dbc4:	03 43       	nop			
    dbc6:	03 43       	nop			
    dbc8:	03 43       	nop			
    dbca:	03 43       	nop			
    dbcc:	03 43       	nop			
    dbce:	03 43       	nop			
    dbd0:	03 43       	nop			
    dbd2:	03 43       	nop			
    dbd4:	03 43       	nop			
    dbd6:	03 43       	nop			
    dbd8:	03 43       	nop			
    dbda:	03 43       	nop			
    dbdc:	03 43       	nop			
    dbde:	03 43       	nop			
    dbe0:	03 43       	nop			
    dbe2:	03 43       	nop			
    dbe4:	03 43       	nop			
    dbe6:	03 43       	nop			
    dbe8:	03 43       	nop			
    dbea:	03 43       	nop			
    dbec:	03 43       	nop			
    dbee:	03 43       	nop			
    dbf0:	03 43       	nop			
    dbf2:	03 43       	nop			
    dbf4:	03 43       	nop			
    dbf6:	03 43       	nop			
    dbf8:	03 43       	nop			
    dbfa:	03 43       	nop			
    dbfc:	03 43       	nop			
    dbfe:	03 43       	nop			
    dc00:	03 43       	nop			
    dc02:	03 43       	nop			
    dc04:	03 43       	nop			
    dc06:	03 43       	nop			
    dc08:	03 43       	nop			
    dc0a:	03 43       	nop			
    dc0c:	03 43       	nop			
    dc0e:	03 43       	nop			
    dc10:	03 43       	nop			
    dc12:	03 43       	nop			
    dc14:	03 43       	nop			
    dc16:	03 43       	nop			
    dc18:	03 43       	nop			
    dc1a:	03 43       	nop			
    dc1c:	03 43       	nop			
    dc1e:	03 43       	nop			
    dc20:	03 43       	nop			
    dc22:	03 43       	nop			
    dc24:	03 43       	nop			
    dc26:	03 43       	nop			
    dc28:	03 43       	nop			
    dc2a:	03 43       	nop			
    dc2c:	03 43       	nop			
    dc2e:	03 43       	nop			
    dc30:	03 43       	nop			
    dc32:	03 43       	nop			
    dc34:	03 43       	nop			
    dc36:	03 43       	nop			
    dc38:	03 43       	nop			
    dc3a:	03 43       	nop			
    dc3c:	03 43       	nop			
    dc3e:	03 43       	nop			
    dc40:	03 43       	nop			
    dc42:	03 43       	nop			
    dc44:	03 43       	nop			
    dc46:	03 43       	nop			
    dc48:	03 43       	nop			
    dc4a:	03 43       	nop			
    dc4c:	03 43       	nop			
    dc4e:	03 43       	nop			
    dc50:	03 43       	nop			
    dc52:	03 43       	nop			
    dc54:	03 43       	nop			
    dc56:	03 43       	nop			
    dc58:	03 43       	nop			
    dc5a:	03 43       	nop			
    dc5c:	03 43       	nop			
    dc5e:	03 43       	nop			
    dc60:	03 43       	nop			
    dc62:	03 43       	nop			
    dc64:	03 43       	nop			
    dc66:	03 43       	nop			
    dc68:	03 43       	nop			
    dc6a:	03 43       	nop			
    dc6c:	03 43       	nop			
    dc6e:	03 43       	nop			
    dc70:	03 43       	nop			
    dc72:	03 43       	nop			
    dc74:	03 43       	nop			
    dc76:	03 43       	nop			
    dc78:	03 43       	nop			
    dc7a:	03 43       	nop			
    dc7c:	03 43       	nop			
    dc7e:	03 43       	nop			
    dc80:	03 43       	nop			
    dc82:	03 43       	nop			
    dc84:	03 43       	nop			
    dc86:	03 43       	nop			
    dc88:	03 43       	nop			
    dc8a:	03 43       	nop			
    dc8c:	03 43       	nop			
    dc8e:	03 43       	nop			
    dc90:	03 43       	nop			
    dc92:	03 43       	nop			
    dc94:	03 43       	nop			
    dc96:	03 43       	nop			
    dc98:	03 43       	nop			
    dc9a:	03 43       	nop			
    dc9c:	03 43       	nop			
    dc9e:	03 43       	nop			
    dca0:	03 43       	nop			
    dca2:	03 43       	nop			
    dca4:	03 43       	nop			
    dca6:	03 43       	nop			
    dca8:	03 43       	nop			
    dcaa:	03 43       	nop			
    dcac:	03 43       	nop			
    dcae:	03 43       	nop			
    dcb0:	03 43       	nop			
    dcb2:	03 43       	nop			
    dcb4:	03 43       	nop			
    dcb6:	03 43       	nop			
    dcb8:	03 43       	nop			
    dcba:	03 43       	nop			
    dcbc:	03 43       	nop			
    dcbe:	03 43       	nop			
    dcc0:	03 43       	nop			
    dcc2:	03 43       	nop			
    dcc4:	03 43       	nop			
    dcc6:	03 43       	nop			
    dcc8:	03 43       	nop			
    dcca:	03 43       	nop			
    dccc:	03 43       	nop			
    dcce:	03 43       	nop			
    dcd0:	03 43       	nop			
    dcd2:	03 43       	nop			
    dcd4:	03 43       	nop			
    dcd6:	03 43       	nop			
    dcd8:	03 43       	nop			
    dcda:	03 43       	nop			
    dcdc:	03 43       	nop			
    dcde:	03 43       	nop			
    dce0:	03 43       	nop			
    dce2:	03 43       	nop			
    dce4:	03 43       	nop			
    dce6:	03 43       	nop			
    dce8:	03 43       	nop			
    dcea:	03 43       	nop			
    dcec:	03 43       	nop			
    dcee:	03 43       	nop			
    dcf0:	03 43       	nop			
    dcf2:	03 43       	nop			
    dcf4:	03 43       	nop			
    dcf6:	03 43       	nop			
    dcf8:	03 43       	nop			
    dcfa:	03 43       	nop			
    dcfc:	03 43       	nop			
    dcfe:	03 43       	nop			
    dd00:	03 43       	nop			
    dd02:	03 43       	nop			
    dd04:	03 43       	nop			
    dd06:	03 43       	nop			
    dd08:	03 43       	nop			
    dd0a:	03 43       	nop			
    dd0c:	03 43       	nop			
    dd0e:	03 43       	nop			
    dd10:	03 43       	nop			
    dd12:	03 43       	nop			
    dd14:	03 43       	nop			
    dd16:	03 43       	nop			
    dd18:	03 43       	nop			
    dd1a:	03 43       	nop			
    dd1c:	03 43       	nop			
    dd1e:	03 43       	nop			
    dd20:	03 43       	nop			
    dd22:	03 43       	nop			
    dd24:	03 43       	nop			
    dd26:	03 43       	nop			
    dd28:	03 43       	nop			
    dd2a:	03 43       	nop			
    dd2c:	03 43       	nop			
    dd2e:	03 43       	nop			
    dd30:	03 43       	nop			
    dd32:	03 43       	nop			
    dd34:	03 43       	nop			
    dd36:	03 43       	nop			
    dd38:	03 43       	nop			
    dd3a:	03 43       	nop			
    dd3c:	03 43       	nop			
    dd3e:	03 43       	nop			
    dd40:	03 43       	nop			
    dd42:	03 43       	nop			
    dd44:	03 43       	nop			
    dd46:	03 43       	nop			
    dd48:	03 43       	nop			
    dd4a:	03 43       	nop			
    dd4c:	03 43       	nop			
    dd4e:	03 43       	nop			
    dd50:	03 43       	nop			
    dd52:	03 43       	nop			
    dd54:	03 43       	nop			
    dd56:	03 43       	nop			
    dd58:	03 43       	nop			
    dd5a:	03 43       	nop			
    dd5c:	03 43       	nop			
    dd5e:	03 43       	nop			
    dd60:	03 43       	nop			
    dd62:	03 43       	nop			
    dd64:	03 43       	nop			
    dd66:	03 43       	nop			
    dd68:	03 43       	nop			
    dd6a:	03 43       	nop			
    dd6c:	03 43       	nop			
    dd6e:	03 43       	nop			
    dd70:	03 43       	nop			
    dd72:	03 43       	nop			
    dd74:	03 43       	nop			
    dd76:	03 43       	nop			
    dd78:	03 43       	nop			
    dd7a:	03 43       	nop			
    dd7c:	03 43       	nop			
    dd7e:	03 43       	nop			
    dd80:	03 43       	nop			
    dd82:	03 43       	nop			
    dd84:	03 43       	nop			
    dd86:	03 43       	nop			
    dd88:	03 43       	nop			
    dd8a:	03 43       	nop			
    dd8c:	03 43       	nop			
    dd8e:	03 43       	nop			
    dd90:	03 43       	nop			
    dd92:	03 43       	nop			
    dd94:	03 43       	nop			
    dd96:	03 43       	nop			
    dd98:	03 43       	nop			
    dd9a:	03 43       	nop			
    dd9c:	03 43       	nop			
    dd9e:	03 43       	nop			
    dda0:	03 43       	nop			
    dda2:	03 43       	nop			
    dda4:	03 43       	nop			
    dda6:	03 43       	nop			
    dda8:	03 43       	nop			
    ddaa:	03 43       	nop			
    ddac:	03 43       	nop			
    ddae:	03 43       	nop			
    ddb0:	03 43       	nop			
    ddb2:	03 43       	nop			
    ddb4:	03 43       	nop			
    ddb6:	03 43       	nop			
    ddb8:	03 43       	nop			
    ddba:	03 43       	nop			
    ddbc:	03 43       	nop			
    ddbe:	03 43       	nop			
    ddc0:	03 43       	nop			
    ddc2:	03 43       	nop			
    ddc4:	03 43       	nop			
    ddc6:	03 43       	nop			
    ddc8:	03 43       	nop			
    ddca:	03 43       	nop			
    ddcc:	03 43       	nop			
    ddce:	03 43       	nop			
    ddd0:	03 43       	nop			
    ddd2:	03 43       	nop			
    ddd4:	03 43       	nop			
    ddd6:	03 43       	nop			
    ddd8:	03 43       	nop			
    ddda:	03 43       	nop			
    dddc:	03 43       	nop			
    ddde:	03 43       	nop			
    dde0:	03 43       	nop			
    dde2:	03 43       	nop			
    dde4:	03 43       	nop			
    dde6:	03 43       	nop			
    dde8:	03 43       	nop			
    ddea:	03 43       	nop			
    ddec:	03 43       	nop			
    ddee:	03 43       	nop			
    ddf0:	03 43       	nop			
    ddf2:	03 43       	nop			
    ddf4:	03 43       	nop			
    ddf6:	03 43       	nop			
    ddf8:	03 43       	nop			
    ddfa:	03 43       	nop			
    ddfc:	03 43       	nop			
    ddfe:	03 43       	nop			
    de00:	03 43       	nop			
    de02:	03 43       	nop			
    de04:	03 43       	nop			
    de06:	03 43       	nop			
    de08:	03 43       	nop			
    de0a:	03 43       	nop			
    de0c:	03 43       	nop			
    de0e:	03 43       	nop			
    de10:	03 43       	nop			
    de12:	03 43       	nop			
    de14:	03 43       	nop			
    de16:	03 43       	nop			
    de18:	03 43       	nop			
    de1a:	03 43       	nop			
    de1c:	03 43       	nop			
    de1e:	03 43       	nop			
    de20:	03 43       	nop			
    de22:	03 43       	nop			
    de24:	03 43       	nop			
    de26:	03 43       	nop			
    de28:	03 43       	nop			
    de2a:	03 43       	nop			
    de2c:	03 43       	nop			
    de2e:	03 43       	nop			
    de30:	03 43       	nop			
    de32:	03 43       	nop			
    de34:	03 43       	nop			
    de36:	03 43       	nop			
    de38:	03 43       	nop			
    de3a:	03 43       	nop			
    de3c:	03 43       	nop			
    de3e:	03 43       	nop			
    de40:	03 43       	nop			
    de42:	03 43       	nop			
    de44:	03 43       	nop			
    de46:	03 43       	nop			
    de48:	03 43       	nop			
    de4a:	03 43       	nop			
    de4c:	03 43       	nop			
    de4e:	03 43       	nop			
    de50:	03 43       	nop			
    de52:	03 43       	nop			
    de54:	03 43       	nop			
    de56:	03 43       	nop			
    de58:	03 43       	nop			
    de5a:	03 43       	nop			
    de5c:	03 43       	nop			
    de5e:	03 43       	nop			
    de60:	03 43       	nop			
    de62:	03 43       	nop			
    de64:	03 43       	nop			
    de66:	03 43       	nop			
    de68:	03 43       	nop			
    de6a:	03 43       	nop			
    de6c:	03 43       	nop			
    de6e:	03 43       	nop			
    de70:	03 43       	nop			
    de72:	03 43       	nop			
    de74:	03 43       	nop			
    de76:	03 43       	nop			
    de78:	03 43       	nop			
    de7a:	03 43       	nop			
    de7c:	03 43       	nop			
    de7e:	03 43       	nop			
    de80:	03 43       	nop			
    de82:	03 43       	nop			
    de84:	03 43       	nop			
    de86:	03 43       	nop			
    de88:	03 43       	nop			
    de8a:	03 43       	nop			
    de8c:	03 43       	nop			
    de8e:	03 43       	nop			
    de90:	03 43       	nop			
    de92:	03 43       	nop			
    de94:	03 43       	nop			
    de96:	03 43       	nop			
    de98:	03 43       	nop			
    de9a:	03 43       	nop			
    de9c:	03 43       	nop			
    de9e:	03 43       	nop			
    dea0:	03 43       	nop			
    dea2:	03 43       	nop			
    dea4:	03 43       	nop			
    dea6:	03 43       	nop			
    dea8:	03 43       	nop			
    deaa:	03 43       	nop			
    deac:	03 43       	nop			
    deae:	03 43       	nop			
    deb0:	03 43       	nop			
    deb2:	03 43       	nop			
    deb4:	03 43       	nop			
    deb6:	03 43       	nop			
    deb8:	03 43       	nop			
    deba:	03 43       	nop			
    debc:	03 43       	nop			
    debe:	03 43       	nop			
    dec0:	03 43       	nop			
    dec2:	03 43       	nop			
    dec4:	03 43       	nop			
    dec6:	03 43       	nop			
    dec8:	03 43       	nop			
    deca:	03 43       	nop			
    decc:	03 43       	nop			
    dece:	03 43       	nop			
    ded0:	03 43       	nop			
    ded2:	03 43       	nop			
    ded4:	03 43       	nop			
    ded6:	03 43       	nop			
    ded8:	03 43       	nop			
    deda:	03 43       	nop			
    dedc:	03 43       	nop			
    dede:	03 43       	nop			
    dee0:	03 43       	nop			
    dee2:	03 43       	nop			
    dee4:	03 43       	nop			
    dee6:	03 43       	nop			
    dee8:	03 43       	nop			
    deea:	03 43       	nop			
    deec:	03 43       	nop			
    deee:	03 43       	nop			
    def0:	03 43       	nop			
    def2:	03 43       	nop			
    def4:	03 43       	nop			
    def6:	03 43       	nop			
    def8:	03 43       	nop			
    defa:	03 43       	nop			
    defc:	03 43       	nop			
    defe:	03 43       	nop			
    df00:	03 43       	nop			
    df02:	03 43       	nop			
    df04:	03 43       	nop			
    df06:	03 43       	nop			
    df08:	03 43       	nop			
    df0a:	03 43       	nop			
    df0c:	03 43       	nop			
    df0e:	03 43       	nop			
    df10:	03 43       	nop			
    df12:	03 43       	nop			
    df14:	03 43       	nop			
    df16:	03 43       	nop			
    df18:	03 43       	nop			
    df1a:	03 43       	nop			
    df1c:	03 43       	nop			
    df1e:	03 43       	nop			
    df20:	03 43       	nop			
    df22:	03 43       	nop			
    df24:	03 43       	nop			
    df26:	03 43       	nop			
    df28:	03 43       	nop			
    df2a:	03 43       	nop			
    df2c:	03 43       	nop			
    df2e:	03 43       	nop			
    df30:	03 43       	nop			
    df32:	03 43       	nop			
    df34:	03 43       	nop			
    df36:	03 43       	nop			
    df38:	03 43       	nop			
    df3a:	03 43       	nop			
    df3c:	03 43       	nop			
    df3e:	03 43       	nop			
    df40:	03 43       	nop			
    df42:	03 43       	nop			
    df44:	03 43       	nop			
    df46:	03 43       	nop			
    df48:	03 43       	nop			
    df4a:	03 43       	nop			
    df4c:	03 43       	nop			
    df4e:	03 43       	nop			
    df50:	03 43       	nop			
    df52:	03 43       	nop			
    df54:	03 43       	nop			
    df56:	03 43       	nop			
    df58:	03 43       	nop			
    df5a:	03 43       	nop			
    df5c:	03 43       	nop			
    df5e:	03 43       	nop			
    df60:	03 43       	nop			
    df62:	03 43       	nop			
    df64:	03 43       	nop			
    df66:	03 43       	nop			
    df68:	03 43       	nop			
    df6a:	03 43       	nop			
    df6c:	03 43       	nop			
    df6e:	03 43       	nop			
    df70:	03 43       	nop			
    df72:	03 43       	nop			
    df74:	03 43       	nop			
    df76:	03 43       	nop			
    df78:	03 43       	nop			
    df7a:	03 43       	nop			
    df7c:	03 43       	nop			
    df7e:	03 43       	nop			
    df80:	03 43       	nop			
    df82:	03 43       	nop			
    df84:	03 43       	nop			
    df86:	03 43       	nop			
    df88:	03 43       	nop			
    df8a:	03 43       	nop			
    df8c:	03 43       	nop			
    df8e:	03 43       	nop			
    df90:	03 43       	nop			
    df92:	03 43       	nop			
    df94:	03 43       	nop			
    df96:	03 43       	nop			
    df98:	03 43       	nop			
    df9a:	03 43       	nop			
    df9c:	03 43       	nop			
    df9e:	03 43       	nop			
    dfa0:	03 43       	nop			
    dfa2:	03 43       	nop			
    dfa4:	03 43       	nop			
    dfa6:	03 43       	nop			
    dfa8:	03 43       	nop			
    dfaa:	03 43       	nop			
    dfac:	03 43       	nop			
    dfae:	03 43       	nop			
    dfb0:	03 43       	nop			
    dfb2:	03 43       	nop			
    dfb4:	03 43       	nop			
    dfb6:	03 43       	nop			
    dfb8:	03 43       	nop			
    dfba:	03 43       	nop			
    dfbc:	03 43       	nop			
    dfbe:	03 43       	nop			
    dfc0:	03 43       	nop			
    dfc2:	03 43       	nop			
    dfc4:	03 43       	nop			
    dfc6:	03 43       	nop			
    dfc8:	03 43       	nop			
    dfca:	03 43       	nop			
    dfcc:	03 43       	nop			
    dfce:	03 43       	nop			
    dfd0:	03 43       	nop			
    dfd2:	03 43       	nop			
    dfd4:	03 43       	nop			
    dfd6:	03 43       	nop			
    dfd8:	03 43       	nop			
    dfda:	03 43       	nop			
    dfdc:	03 43       	nop			
    dfde:	03 43       	nop			
    dfe0:	03 43       	nop			
    dfe2:	03 43       	nop			
    dfe4:	03 43       	nop			
    dfe6:	03 43       	nop			
    dfe8:	03 43       	nop			
    dfea:	03 43       	nop			
    dfec:	03 43       	nop			
    dfee:	03 43       	nop			
    dff0:	03 43       	nop			
    dff2:	03 43       	nop			
    dff4:	03 43       	nop			
    dff6:	03 43       	nop			
    dff8:	03 43       	nop			
    dffa:	03 43       	nop			
    dffc:	03 43       	nop			

0000dffe <Hacl_HMAC_SHA2_256_hmac_exit>:

__attribute__ ((section (".do_mac.leave"))) __attribute__((naked)) void Hacl_HMAC_SHA2_256_hmac_exit() {
    __asm__ volatile("br   r6" "\n\t");
    dffe:	00 46       	br	r6		

Disassembly of section .vectors:

0000ffe0 <__ivtbl_16>:
    ffe0:	f2 e0 f2 e0 f2 e0 f2 e0 f2 e0 f2 e0 f2 e0 f2 e0     ................
    fff0:	f2 e0 f2 e0 f2 e0 f2 e0 f2 e0 f2 e0 f2 e0 00 e0     ................
